---
triple:          'arm64-apple-darwin'
binary-path:     '/Users/nick/projects/fantasyLCK/main'
relocations:
  - { offsetInCU: 0x26, offset: 0x26, size: 0x8, addend: 0x0, symName: _main, symObjAddr: 0x0, symBinAddr: 0x100002E1C, symSize: 0xA4 }
  - { offsetInCU: 0x30E8, offset: 0x30E8, size: 0x8, addend: 0x0, symName: __ZNSt3__119__debug_db_insert_cB7v160006INS_12basic_stringIcNS_11char_traitsIcEENS_9allocatorIcEEEEEEvPT_, symObjAddr: 0x1A8, symBinAddr: 0x100002FC4, symSize: 0x10 }
  - { offsetInCU: 0x3119, offset: 0x3119, size: 0x8, addend: 0x0, symName: __ZNSt3__118__constexpr_strlenB7v160006EPKc, symObjAddr: 0x274, symBinAddr: 0x100003090, symSize: 0x24 }
  - { offsetInCU: 0x6F1F, offset: 0x6F1F, size: 0x8, addend: 0x0, symName: _main, symObjAddr: 0x0, symBinAddr: 0x100002E1C, symSize: 0xA4 }
  - { offsetInCU: 0x70CE, offset: 0x70CE, size: 0x8, addend: 0x0, symName: __ZNSt3__112basic_stringIcNS_11char_traitsIcEENS_9allocatorIcEEEC1B7v160006IDnEEPKc, symObjAddr: 0xA4, symBinAddr: 0x100002EC0, symSize: 0x34 }
  - { offsetInCU: 0x710A, offset: 0x710A, size: 0x8, addend: 0x0, symName: __ZNSt3__112basic_stringIcNS_11char_traitsIcEENS_9allocatorIcEEEC2B7v160006IDnEEPKc, symObjAddr: 0xD8, symBinAddr: 0x100002EF4, symSize: 0x60 }
  - { offsetInCU: 0x714B, offset: 0x714B, size: 0x8, addend: 0x0, symName: __ZNSt3__117__compressed_pairINS_12basic_stringIcNS_11char_traitsIcEENS_9allocatorIcEEE5__repES5_EC1B7v160006INS_18__default_init_tagESA_EEOT_OT0_, symObjAddr: 0x138, symBinAddr: 0x100002F54, symSize: 0x3C }
  - { offsetInCU: 0x71A1, offset: 0x71A1, size: 0x8, addend: 0x0, symName: __ZNSt3__111char_traitsIcE6lengthEPKc, symObjAddr: 0x174, symBinAddr: 0x100002F90, symSize: 0x34 }
  - { offsetInCU: 0x71C3, offset: 0x71C3, size: 0x8, addend: 0x0, symName: __ZNSt3__117__compressed_pairINS_12basic_stringIcNS_11char_traitsIcEENS_9allocatorIcEEE5__repES5_EC2B7v160006INS_18__default_init_tagESA_EEOT_OT0_, symObjAddr: 0x1B8, symBinAddr: 0x100002FD4, symSize: 0x3C }
  - { offsetInCU: 0x7219, offset: 0x7219, size: 0x8, addend: 0x0, symName: __ZNSt3__122__compressed_pair_elemINS_12basic_stringIcNS_11char_traitsIcEENS_9allocatorIcEEE5__repELi0ELb0EEC2B7v160006ENS_18__default_init_tagE, symObjAddr: 0x1F4, symBinAddr: 0x100003010, symSize: 0x14 }
  - { offsetInCU: 0x724B, offset: 0x724B, size: 0x8, addend: 0x0, symName: __ZNSt3__122__compressed_pair_elemINS_9allocatorIcEELi1ELb1EEC2B7v160006ENS_18__default_init_tagE, symObjAddr: 0x208, symBinAddr: 0x100003024, symSize: 0x2C }
  - { offsetInCU: 0x727D, offset: 0x727D, size: 0x8, addend: 0x0, symName: __ZNSt3__19allocatorIcEC2B7v160006Ev, symObjAddr: 0x234, symBinAddr: 0x100003050, symSize: 0x2C }
  - { offsetInCU: 0x72A5, offset: 0x72A5, size: 0x8, addend: 0x0, symName: __ZNSt3__116__non_trivial_ifILb1ENS_9allocatorIcEEEC2B7v160006Ev, symObjAddr: 0x260, symBinAddr: 0x10000307C, symSize: 0x14 }
  - { offsetInCU: 0xCA56, offset: 0x1420C, size: 0x8, addend: 0x0, symName: __ZNSt3__124__put_character_sequenceB7v160006IcNS_11char_traitsIcEEEERNS_13basic_ostreamIT_T0_EES7_PKS4_m, symObjAddr: 0x3420, symBinAddr: 0x100006398, symSize: 0x1EC }
  - { offsetInCU: 0x10329, offset: 0x17ADF, size: 0x8, addend: 0x0, symName: __ZNSt3__1lsB7v160006INS_11char_traitsIcEEEERNS_13basic_ostreamIcT_EES6_PKc, symObjAddr: 0x880, symBinAddr: 0x100003940, symSize: 0x48 }
  - { offsetInCU: 0x1036F, offset: 0x17B25, size: 0x8, addend: 0x0, symName: __ZNSt3__14endlB7v160006IcNS_11char_traitsIcEEEERNS_13basic_ostreamIT_T0_EES7_, symObjAddr: 0x8F4, symBinAddr: 0x1000039B4, symSize: 0x58 }
  - { offsetInCU: 0x103AF, offset: 0x17B65, size: 0x8, addend: 0x0, symName: __ZNSt3__17getlineB7v160006IcNS_11char_traitsIcEENS_9allocatorIcEEEERNS_13basic_istreamIT_T0_EES9_RNS_12basic_stringIS6_S7_T1_EES6_, symObjAddr: 0x978, symBinAddr: 0x100003A38, symSize: 0x238 }
  - { offsetInCU: 0x10478, offset: 0x17C2E, size: 0x8, addend: 0x0, symName: __ZNSt3__14leftB7v160006ERNS_8ios_baseE, symObjAddr: 0x1B74, symBinAddr: 0x100004C00, symSize: 0x30 }
  - { offsetInCU: 0x104A6, offset: 0x17C5C, size: 0x8, addend: 0x0, symName: __ZNSt3__1lsB7v160006IcNS_11char_traitsIcEEEERNS_13basic_ostreamIT_T0_EES7_RKNS_8__iom_t6E, symObjAddr: 0x1BA4, symBinAddr: 0x100004C30, symSize: 0x40 }
  - { offsetInCU: 0x104F5, offset: 0x17CAB, size: 0x8, addend: 0x0, symName: __ZNSt3__15rightB7v160006ERNS_8ios_baseE, symObjAddr: 0x1BE4, symBinAddr: 0x100004C70, symSize: 0x30 }
  - { offsetInCU: 0x10523, offset: 0x17CD9, size: 0x8, addend: 0x0, symName: __ZNSt3__14setwB7v160006Ei, symObjAddr: 0x1C14, symBinAddr: 0x100004CA0, symSize: 0x2C }
  - { offsetInCU: 0x10551, offset: 0x17D07, size: 0x8, addend: 0x0, symName: __ZNSt3__1lsB7v160006IcNS_11char_traitsIcEENS_9allocatorIcEEEERNS_13basic_ostreamIT_T0_EES9_RKNS_12basic_stringIS6_S7_T1_EE, symObjAddr: 0x1CBC, symBinAddr: 0x100004D48, symSize: 0x4C }
  - { offsetInCU: 0x105A9, offset: 0x17D5F, size: 0x8, addend: 0x0, symName: __ZNSt3__119__libcpp_deallocateB7v160006EPvmm, symObjAddr: 0x244C, symBinAddr: 0x1000053C4, symSize: 0x60 }
  - { offsetInCU: 0x10610, offset: 0x17DC6, size: 0x8, addend: 0x0, symName: __ZNSt3__124__is_overaligned_for_newB7v160006Em, symObjAddr: 0x24AC, symBinAddr: 0x100005424, symSize: 0x20 }
  - { offsetInCU: 0x1063F, offset: 0x17DF5, size: 0x8, addend: 0x0, symName: __ZNSt3__127__do_deallocate_handle_sizeB7v160006IJSt11align_val_tEEEvPvmDpT_, symObjAddr: 0x24CC, symBinAddr: 0x100005444, symSize: 0x30 }
  - { offsetInCU: 0x10693, offset: 0x17E49, size: 0x8, addend: 0x0, symName: __ZNSt3__127__do_deallocate_handle_sizeB7v160006IJEEEvPvmDpT_, symObjAddr: 0x24FC, symBinAddr: 0x100005474, symSize: 0x28 }
  - { offsetInCU: 0x106D3, offset: 0x17E89, size: 0x8, addend: 0x0, symName: __ZNSt3__124__libcpp_operator_deleteB7v160006IJPvSt11align_val_tEEEvDpT_, symObjAddr: 0x2524, symBinAddr: 0x10000549C, symSize: 0x2C }
  - { offsetInCU: 0x1071D, offset: 0x17ED3, size: 0x8, addend: 0x0, symName: __ZNSt3__124__libcpp_operator_deleteB7v160006IJPvEEEvDpT_, symObjAddr: 0x2550, symBinAddr: 0x1000054C8, symSize: 0x24 }
  - { offsetInCU: 0x10786, offset: 0x17F3C, size: 0x8, addend: 0x0, symName: __ZNSt3__119__debug_db_insert_cB7v160006INS_6vectorI7PlayersNS_9allocatorIS2_EEEEEEvPT_, symObjAddr: 0x268C, symBinAddr: 0x100005604, symSize: 0x10 }
  - { offsetInCU: 0x107B7, offset: 0x17F6D, size: 0x8, addend: 0x0, symName: __ZNSt3__119__debug_db_insert_cB7v160006INS_6vectorINS1_I7PlayersNS_9allocatorIS2_EEEENS3_IS5_EEEEEEvPT_, symObjAddr: 0x27F8, symBinAddr: 0x100005770, symSize: 0x10 }
  - { offsetInCU: 0x107E8, offset: 0x17F9E, size: 0x8, addend: 0x0, symName: __ZNSt3__118__debug_db_erase_cB7v160006INS_6vectorI7PlayersNS_9allocatorIS2_EEEEEEvPT_, symObjAddr: 0x2AD8, symBinAddr: 0x100005A50, symSize: 0x10 }
  - { offsetInCU: 0x10819, offset: 0x17FCF, size: 0x8, addend: 0x0, symName: __ZNSt3__112__to_addressB7v160006I7PlayersEEPT_S3_, symObjAddr: 0x2BF4, symBinAddr: 0x100005B6C, symSize: 0x14 }
  - { offsetInCU: 0x1084F, offset: 0x18005, size: 0x8, addend: 0x0, symName: __ZNSt3__118__debug_db_erase_cB7v160006INS_6vectorINS1_I7PlayersNS_9allocatorIS2_EEEENS3_IS5_EEEEEEvPT_, symObjAddr: 0x2FCC, symBinAddr: 0x100005F44, symSize: 0x10 }
  - { offsetInCU: 0x10880, offset: 0x18036, size: 0x8, addend: 0x0, symName: __ZNSt3__112__to_addressB7v160006INS_6vectorI7PlayersNS_9allocatorIS2_EEEEEEPT_S7_, symObjAddr: 0x30E8, symBinAddr: 0x100006060, symSize: 0x14 }
  - { offsetInCU: 0x108B6, offset: 0x1806C, size: 0x8, addend: 0x0, symName: __ZNSt3__116__pad_and_outputB7v160006IcNS_11char_traitsIcEEEENS_19ostreambuf_iteratorIT_T0_EES6_PKS4_S8_S8_RNS_8ios_baseES4_, symObjAddr: 0x365C, symBinAddr: 0x1000065A0, symSize: 0x240 }
  - { offsetInCU: 0x10985, offset: 0x1813B, size: 0x8, addend: 0x0, symName: __ZNSt3__112__to_addressB7v160006IcEEPT_S2_, symObjAddr: 0x3AD4, symBinAddr: 0x100006A18, symSize: 0x14 }
  - { offsetInCU: 0x109BB, offset: 0x18171, size: 0x8, addend: 0x0, symName: __ZNSt3__19use_facetB7v160006INS_5ctypeIcEEEERKT_RKNS_6localeE, symObjAddr: 0x3C78, symBinAddr: 0x100006BBC, symSize: 0x2C }
  - { offsetInCU: 0x10E8A, offset: 0x18640, size: 0x8, addend: 0x0, symName: __ZNSt3__125__debug_db_invalidate_allB7v160006INS_12basic_stringIcNS_11char_traitsIcEENS_9allocatorIcEEEEEEvPT_, symObjAddr: 0x3FC4, symBinAddr: 0x100006EE4, symSize: 0x10 }
  - { offsetInCU: 0x110A7, offset: 0x1885D, size: 0x8, addend: 0x0, symName: __ZNSt3__122__make_exception_guardB7v160006INS_6vectorI7PlayersNS_9allocatorIS2_EEE16__destroy_vectorEEENS_28__exception_guard_exceptionsIT_EES8_, symObjAddr: 0x4604, symBinAddr: 0x1000074C4, symSize: 0x40 }
  - { offsetInCU: 0x110DC, offset: 0x18892, size: 0x8, addend: 0x0, symName: __ZNSt3__119__allocate_at_leastB7v160006INS_9allocatorI7PlayersEEEENS_19__allocation_resultINS_16allocator_traitsIT_E7pointerEEERS6_m, symObjAddr: 0x4934, symBinAddr: 0x1000077F4, symSize: 0x40 }
  - { offsetInCU: 0x1111F, offset: 0x188D5, size: 0x8, addend: 0x0, symName: __ZNSt3__13minB7v160006ImEERKT_S3_S3_, symObjAddr: 0x4A64, symBinAddr: 0x100007924, symSize: 0x2C }
  - { offsetInCU: 0x1134C, offset: 0x18B02, size: 0x8, addend: 0x0, symName: __ZNSt3__13minB7v160006ImNS_6__lessImmEEEERKT_S5_S5_T0_, symObjAddr: 0x4AC8, symBinAddr: 0x100007988, symSize: 0x54 }
  - { offsetInCU: 0x113E1, offset: 0x18B97, size: 0x8, addend: 0x0, symName: __ZNSt3__120__throw_length_errorB7v160006EPKc, symObjAddr: 0x4B70, symBinAddr: 0x100007A30, symSize: 0x64 }
  - { offsetInCU: 0x1140A, offset: 0x18BC0, size: 0x8, addend: 0x0, symName: __ZNSt3__117__libcpp_allocateB7v160006Emm, symObjAddr: 0x4CE4, symBinAddr: 0x100007BA4, symSize: 0x60 }
  - { offsetInCU: 0x11465, offset: 0x18C1B, size: 0x8, addend: 0x0, symName: __ZNSt3__121__libcpp_operator_newB7v160006IJmSt11align_val_tEEEPvDpT_, symObjAddr: 0x4D44, symBinAddr: 0x100007C04, symSize: 0x2C }
  - { offsetInCU: 0x114B2, offset: 0x18C68, size: 0x8, addend: 0x0, symName: __ZNSt3__121__libcpp_operator_newB7v160006IJmEEEPvDpT_, symObjAddr: 0x4D70, symBinAddr: 0x100007C30, symSize: 0x24 }
  - { offsetInCU: 0x114EB, offset: 0x18CA1, size: 0x8, addend: 0x0, symName: __ZNSt3__130__uninitialized_allocator_copyB7v160006INS_9allocatorI7PlayersEEPS2_S4_S4_EET2_RT_T0_T1_S5_, symObjAddr: 0x4E08, symBinAddr: 0x100007CC8, symSize: 0xF4 }
  - { offsetInCU: 0x11589, offset: 0x18D3F, size: 0x8, addend: 0x0, symName: __ZNSt3__122__make_exception_guardB7v160006INS_29_AllocatorDestroyRangeReverseINS_9allocatorI7PlayersEEPS3_EEEENS_28__exception_guard_exceptionsIT_EES8_, symObjAddr: 0x4F74, symBinAddr: 0x100007E34, symSize: 0x4C }
  - { offsetInCU: 0x115BF, offset: 0x18D75, size: 0x8, addend: 0x0, symName: __ZNSt3__119__allocator_destroyB7v160006INS_9allocatorI7PlayersEENS_16reverse_iteratorIPS2_EES6_EEvRT_T0_T1_, symObjAddr: 0x5204, symBinAddr: 0x1000080C4, symSize: 0x70 }
  - { offsetInCU: 0x11623, offset: 0x18DD9, size: 0x8, addend: 0x0, symName: __ZNSt3__1neB7v160006IP7PlayersS2_EEbRKNS_16reverse_iteratorIT_EERKNS3_IT0_EE, symObjAddr: 0x52A8, symBinAddr: 0x100008168, symSize: 0x48 }
  - { offsetInCU: 0x1166F, offset: 0x18E25, size: 0x8, addend: 0x0, symName: __ZNSt3__112__to_addressB7v160006INS_16reverse_iteratorIP7PlayersEEvEENS_5decayIDTclsr19__to_address_helperIT_EE6__callclsr3stdE7declvalIRKS6_EEEEE4typeES8_, symObjAddr: 0x52F0, symBinAddr: 0x1000081B0, symSize: 0x24 }
  - { offsetInCU: 0x116CF, offset: 0x18E85, size: 0x8, addend: 0x0, symName: __ZNSt3__13maxB7v160006ImEERKT_S3_S3_, symObjAddr: 0x5740, symBinAddr: 0x100008600, symSize: 0x2C }
  - { offsetInCU: 0x11712, offset: 0x18EC8, size: 0x8, addend: 0x0, symName: __ZNSt3__13maxB7v160006ImNS_6__lessImmEEEERKT_S5_S5_T0_, symObjAddr: 0x5808, symBinAddr: 0x1000086C8, symSize: 0x54 }
  - { offsetInCU: 0x1176C, offset: 0x18F22, size: 0x8, addend: 0x0, symName: __ZNSt3__119__allocate_at_leastB7v160006INS_9allocatorINS_6vectorI7PlayersNS1_IS3_EEEEEEEENS_19__allocation_resultINS_16allocator_traitsIT_E7pointerEEERS9_m, symObjAddr: 0x5978, symBinAddr: 0x100008838, symSize: 0x40 }
  - { offsetInCU: 0x117AF, offset: 0x18F65, size: 0x8, addend: 0x0, symName: __ZNSt3__142__uninitialized_allocator_move_if_noexceptB7v160006INS_9allocatorINS_6vectorI7PlayersNS1_IS3_EEEEEENS_16reverse_iteratorIPS5_EES9_S9_EET2_RT_T0_T1_SA_, symObjAddr: 0x5B30, symBinAddr: 0x1000089F0, symSize: 0x12C }
  - { offsetInCU: 0x1184F, offset: 0x19005, size: 0x8, addend: 0x0, symName: __ZNSt3__14swapB7v160006IPNS_6vectorI7PlayersNS_9allocatorIS2_EEEEEENS_9enable_ifIXaasr21is_move_constructibleIT_EE5valuesr18is_move_assignableIS8_EE5valueEvE4typeERS8_SB_, symObjAddr: 0x5CA8, symBinAddr: 0x100008B68, symSize: 0x3C }
  - { offsetInCU: 0x118A1, offset: 0x19057, size: 0x8, addend: 0x0, symName: __ZNSt3__125__debug_db_invalidate_allB7v160006INS_6vectorINS1_I7PlayersNS_9allocatorIS2_EEEENS3_IS5_EEEEEEvPT_, symObjAddr: 0x5DAC, symBinAddr: 0x100008C6C, symSize: 0x10 }
  - { offsetInCU: 0x118D2, offset: 0x19088, size: 0x8, addend: 0x0, symName: __ZNSt3__122__make_exception_guardB7v160006INS_29_AllocatorDestroyRangeReverseINS_9allocatorINS_6vectorI7PlayersNS2_IS4_EEEEEENS_16reverse_iteratorIPS6_EEEEEENS_28__exception_guard_exceptionsIT_EESD_, symObjAddr: 0x5DBC, symBinAddr: 0x100008C7C, symSize: 0x4C }
  - { offsetInCU: 0x11908, offset: 0x190BE, size: 0x8, addend: 0x0, symName: __ZNSt3__1neB7v160006IPNS_6vectorI7PlayersNS_9allocatorIS2_EEEES6_EEbRKNS_16reverse_iteratorIT_EERKNS7_IT0_EE, symObjAddr: 0x5E4C, symBinAddr: 0x100008D0C, symSize: 0x48 }
  - { offsetInCU: 0x11954, offset: 0x1910A, size: 0x8, addend: 0x0, symName: __ZNSt3__112__to_addressB7v160006INS_16reverse_iteratorIPNS_6vectorI7PlayersNS_9allocatorIS3_EEEEEEvEENS_5decayIDTclsr19__to_address_helperIT_EE6__callclsr3stdE7declvalIRKSA_EEEEE4typeESC_, symObjAddr: 0x5EC8, symBinAddr: 0x100008D88, symSize: 0x24 }
  - { offsetInCU: 0x1198A, offset: 0x19140, size: 0x8, addend: 0x0, symName: __ZNSt3__115__debug_db_swapB7v160006INS_6vectorI7PlayersNS_9allocatorIS2_EEEEEEvPT_S7_, symObjAddr: 0x6158, symBinAddr: 0x100009018, symSize: 0x14 }
  - { offsetInCU: 0x119F3, offset: 0x191A9, size: 0x8, addend: 0x0, symName: __ZNSt3__119__allocator_destroyB7v160006INS_9allocatorINS_6vectorI7PlayersNS1_IS3_EEEEEENS_16reverse_iteratorINS7_IPS5_EEEESA_EEvRT_T0_T1_, symObjAddr: 0x62CC, symBinAddr: 0x10000918C, symSize: 0x70 }
  - { offsetInCU: 0x11A59, offset: 0x1920F, size: 0x8, addend: 0x0, symName: __ZNSt3__1neB7v160006INS_16reverse_iteratorIPNS_6vectorI7PlayersNS_9allocatorIS3_EEEEEES8_EEbRKNS1_IT_EERKNS1_IT0_EE, symObjAddr: 0x6378, symBinAddr: 0x100009238, symSize: 0x60 }
  - { offsetInCU: 0x11AA5, offset: 0x1925B, size: 0x8, addend: 0x0, symName: __ZNSt3__112__to_addressB7v160006INS_16reverse_iteratorINS1_IPNS_6vectorI7PlayersNS_9allocatorIS3_EEEEEEEEvEENS_5decayIDTclsr19__to_address_helperIT_EE6__callclsr3stdE7declvalIRKSB_EEEEE4typeESD_, symObjAddr: 0x63D8, symBinAddr: 0x100009298, symSize: 0x24 }
  - { offsetInCU: 0x11B05, offset: 0x192BB, size: 0x8, addend: 0x0, symName: __ZNSt3__112__to_addressB7v160006IKcEEPT_S3_, symObjAddr: 0x67C4, symBinAddr: 0x100009684, symSize: 0x14 }
  - { offsetInCU: 0x11B6E, offset: 0x19324, size: 0x8, addend: 0x0, symName: __ZNSt3__142__uninitialized_allocator_move_if_noexceptB7v160006INS_9allocatorI7PlayersEENS_16reverse_iteratorIPS2_EES6_S6_EET2_RT_T0_T1_S7_, symObjAddr: 0x6ED0, symBinAddr: 0x100009D90, symSize: 0x11C }
  - { offsetInCU: 0x11C0E, offset: 0x193C4, size: 0x8, addend: 0x0, symName: __ZNSt3__14swapB7v160006IP7PlayersEENS_9enable_ifIXaasr21is_move_constructibleIT_EE5valuesr18is_move_assignableIS4_EE5valueEvE4typeERS4_S7_, symObjAddr: 0x6FEC, symBinAddr: 0x100009EAC, symSize: 0x3C }
  - { offsetInCU: 0x11C60, offset: 0x19416, size: 0x8, addend: 0x0, symName: __ZNSt3__125__debug_db_invalidate_allB7v160006INS_6vectorI7PlayersNS_9allocatorIS2_EEEEEEvPT_, symObjAddr: 0x7028, symBinAddr: 0x100009EE8, symSize: 0x10 }
  - { offsetInCU: 0x11C91, offset: 0x19447, size: 0x8, addend: 0x0, symName: __ZNSt3__122__make_exception_guardB7v160006INS_29_AllocatorDestroyRangeReverseINS_9allocatorI7PlayersEENS_16reverse_iteratorIPS3_EEEEEENS_28__exception_guard_exceptionsIT_EESA_, symObjAddr: 0x7038, symBinAddr: 0x100009EF8, symSize: 0x4C }
  - { offsetInCU: 0x11CC7, offset: 0x1947D, size: 0x8, addend: 0x0, symName: __ZNSt3__119__allocator_destroyB7v160006INS_9allocatorI7PlayersEENS_16reverse_iteratorINS4_IPS2_EEEES7_EEvRT_T0_T1_, symObjAddr: 0x72B0, symBinAddr: 0x10000A170, symSize: 0x70 }
  - { offsetInCU: 0x11D2D, offset: 0x194E3, size: 0x8, addend: 0x0, symName: __ZNSt3__1neB7v160006INS_16reverse_iteratorIP7PlayersEES4_EEbRKNS1_IT_EERKNS1_IT0_EE, symObjAddr: 0x735C, symBinAddr: 0x10000A21C, symSize: 0x60 }
  - { offsetInCU: 0x11D79, offset: 0x1952F, size: 0x8, addend: 0x0, symName: __ZNSt3__112__to_addressB7v160006INS_16reverse_iteratorINS1_IP7PlayersEEEEvEENS_5decayIDTclsr19__to_address_helperIT_EE6__callclsr3stdE7declvalIRKS7_EEEEE4typeES9_, symObjAddr: 0x73BC, symBinAddr: 0x10000A27C, symSize: 0x24 }
  - { offsetInCU: 0x11DFE, offset: 0x195B4, size: 0x8, addend: 0x0, symName: __ZNSt3__118__constexpr_memcmpB7v160006IcEEiPKT_S3_m, symObjAddr: 0x7914, symBinAddr: 0x10000A7D4, symSize: 0x34 }
  - { offsetInCU: 0x122BC, offset: 0x19A72, size: 0x8, addend: 0x0, symName: __ZSt28__throw_bad_array_new_lengthB7v160006v, symObjAddr: 0x4CB0, symBinAddr: 0x100007B70, symSize: 0x34 }
  - { offsetInCU: 0x12F94, offset: 0x1A74A, size: 0x8, addend: 0x0, symName: __ZNSt3__16vectorINS0_I7PlayersNS_9allocatorIS1_EEEENS2_IS4_EEE26__swap_out_circular_bufferERNS_14__split_bufferIS4_RS5_EE, symObjAddr: 0x5580, symBinAddr: 0x100008440, symSize: 0x118 }
  - { offsetInCU: 0x13026, offset: 0x1A7DC, size: 0x8, addend: 0x0, symName: __ZNSt3__16vectorI7PlayersNS_9allocatorIS1_EEE26__swap_out_circular_bufferERNS_14__split_bufferIS1_RS3_EE, symObjAddr: 0x6B54, symBinAddr: 0x100009A14, symSize: 0x118 }
  - { offsetInCU: 0x146A1, offset: 0x1BE57, size: 0x8, addend: 0x0, symName: __Z7toloweri, symObjAddr: 0x16D4, symBinAddr: 0x100004760, symSize: 0x24 }
  - { offsetInCU: 0x14F39, offset: 0x1C6EF, size: 0x8, addend: 0x0, symName: __ZN10PlayerListC2Ev, symObjAddr: 0x0, symBinAddr: 0x1000030C0, symSize: 0xA4 }
  - { offsetInCU: 0x14F64, offset: 0x1C71A, size: 0x8, addend: 0x0, symName: __ZNSt3__16vectorI7PlayersNS_9allocatorIS1_EEEC1B7v160006Ev, symObjAddr: 0xA4, symBinAddr: 0x100003164, symSize: 0x2C }
  - { offsetInCU: 0x14F8C, offset: 0x1C742, size: 0x8, addend: 0x0, symName: __ZNSt3__16vectorINS0_I7PlayersNS_9allocatorIS1_EEEENS2_IS4_EEEC1B7v160006Ev, symObjAddr: 0xD0, symBinAddr: 0x100003190, symSize: 0x2C }
  - { offsetInCU: 0x14FB4, offset: 0x1C76A, size: 0x8, addend: 0x0, symName: __ZN10PlayerListC1Ev, symObjAddr: 0xFC, symBinAddr: 0x1000031BC, symSize: 0x2C }
  - { offsetInCU: 0x14FDF, offset: 0x1C795, size: 0x8, addend: 0x0, symName: __ZN10PlayerListC2ENSt3__112basic_stringIcNS0_11char_traitsIcEENS0_9allocatorIcEEEE, symObjAddr: 0x128, symBinAddr: 0x1000031E8, symSize: 0x648 }
  - { offsetInCU: 0x151C9, offset: 0x1C97F, size: 0x8, addend: 0x0, symName: __ZNSt3__114basic_ifstreamIcNS_11char_traitsIcEEEC1Ev, symObjAddr: 0x770, symBinAddr: 0x100003830, symSize: 0xE8 }
  - { offsetInCU: 0x151F4, offset: 0x1C9AA, size: 0x8, addend: 0x0, symName: __ZNKSt3__19basic_iosIcNS_11char_traitsIcEEEntB7v160006Ev, symObjAddr: 0x858, symBinAddr: 0x100003918, symSize: 0x28 }
  - { offsetInCU: 0x15219, offset: 0x1C9CF, size: 0x8, addend: 0x0, symName: __ZNSt3__113basic_ostreamIcNS_11char_traitsIcEEElsB7v160006EPFRS3_S4_E, symObjAddr: 0x8C8, symBinAddr: 0x100003988, symSize: 0x2C }
  - { offsetInCU: 0x1524C, offset: 0x1CA02, size: 0x8, addend: 0x0, symName: __ZNSt3__112basic_stringIcNS_11char_traitsIcEENS_9allocatorIcEEEC1B7v160006Ev, symObjAddr: 0x94C, symBinAddr: 0x100003A0C, symSize: 0x2C }
  - { offsetInCU: 0x15274, offset: 0x1CA2A, size: 0x8, addend: 0x0, symName: __ZNKSt3__19basic_iosIcNS_11char_traitsIcEEE3eofB7v160006Ev, symObjAddr: 0xBB0, symBinAddr: 0x100003C70, symSize: 0x28 }
  - { offsetInCU: 0x15299, offset: 0x1CA4F, size: 0x8, addend: 0x0, symName: __ZN10PlayerList8loadDataENSt3__112basic_stringIcNS0_11char_traitsIcEENS0_9allocatorIcEEEER7Players, symObjAddr: 0xBD8, symBinAddr: 0x100003C98, symSize: 0x3FC }
  - { offsetInCU: 0x153A8, offset: 0x1CB5E, size: 0x8, addend: 0x0, symName: __ZN10PlayerList9addPlayerE7Players, symObjAddr: 0x1008, symBinAddr: 0x100004094, symSize: 0x2CC }
  - { offsetInCU: 0x153EC, offset: 0x1CBA2, size: 0x8, addend: 0x0, symName: __ZN7PlayersC1ERKS_, symObjAddr: 0x12D4, symBinAddr: 0x100004360, symSize: 0x34 }
  - { offsetInCU: 0x15420, offset: 0x1CBD6, size: 0x8, addend: 0x0, symName: __ZNSt3__114basic_ifstreamIcNS_11char_traitsIcEEE5closeEv, symObjAddr: 0x1308, symBinAddr: 0x100004394, symSize: 0x58 }
  - { offsetInCU: 0x15447, offset: 0x1CBFD, size: 0x8, addend: 0x0, symName: __ZNSt3__16vectorINS0_I7PlayersNS_9allocatorIS1_EEEENS2_IS4_EEE9push_backB7v160006ERKS4_, symObjAddr: 0x1360, symBinAddr: 0x1000043EC, symSize: 0x6C }
  - { offsetInCU: 0x15482, offset: 0x1CC38, size: 0x8, addend: 0x0, symName: __ZNSt3__114basic_ifstreamIcNS_11char_traitsIcEEED1Ev, symObjAddr: 0x13CC, symBinAddr: 0x100004458, symSize: 0x40 }
  - { offsetInCU: 0x154AE, offset: 0x1CC64, size: 0x8, addend: 0x0, symName: __ZNSt3__16vectorINS0_I7PlayersNS_9allocatorIS1_EEEENS2_IS4_EEED1B7v160006Ev, symObjAddr: 0x140C, symBinAddr: 0x100004498, symSize: 0x2C }
  - { offsetInCU: 0x154D6, offset: 0x1CC8C, size: 0x8, addend: 0x0, symName: __ZNSt3__16vectorI7PlayersNS_9allocatorIS1_EEED1B7v160006Ev, symObjAddr: 0x1438, symBinAddr: 0x1000044C4, symSize: 0x2C }
  - { offsetInCU: 0x154FE, offset: 0x1CCB4, size: 0x8, addend: 0x0, symName: __ZN10PlayerListC1ENSt3__112basic_stringIcNS0_11char_traitsIcEENS0_9allocatorIcEEEE, symObjAddr: 0x1464, symBinAddr: 0x1000044F0, symSize: 0x34 }
  - { offsetInCU: 0x15538, offset: 0x1CCEE, size: 0x8, addend: 0x0, symName: __ZN10PlayerListD2Ev, symObjAddr: 0x1498, symBinAddr: 0x100004524, symSize: 0xA4 }
  - { offsetInCU: 0x15563, offset: 0x1CD19, size: 0x8, addend: 0x0, symName: __ZN10PlayerListD1Ev, symObjAddr: 0x153C, symBinAddr: 0x1000045C8, symSize: 0x2C }
  - { offsetInCU: 0x1558E, offset: 0x1CD44, size: 0x8, addend: 0x0, symName: __ZN10PlayerList11toLowerCaseENSt3__112basic_stringIcNS0_11char_traitsIcEENS0_9allocatorIcEEEE, symObjAddr: 0x1568, symBinAddr: 0x1000045F4, symSize: 0x118 }
  - { offsetInCU: 0x155F0, offset: 0x1CDA6, size: 0x8, addend: 0x0, symName: __ZNKSt3__112basic_stringIcNS_11char_traitsIcEENS_9allocatorIcEEE4sizeB7v160006Ev, symObjAddr: 0x1680, symBinAddr: 0x10000470C, symSize: 0x54 }
  - { offsetInCU: 0x15615, offset: 0x1CDCB, size: 0x8, addend: 0x0, symName: __ZNKSt3__112basic_stringIcNS_11char_traitsIcEENS_9allocatorIcEEEixB7v160006Em, symObjAddr: 0x16F8, symBinAddr: 0x100004784, symSize: 0x30 }
  - { offsetInCU: 0x15649, offset: 0x1CDFF, size: 0x8, addend: 0x0, symName: __ZNSt3__112basic_stringIcNS_11char_traitsIcEENS_9allocatorIcEEEixB7v160006Em, symObjAddr: 0x1728, symBinAddr: 0x1000047B4, symSize: 0x30 }
  - { offsetInCU: 0x1567D, offset: 0x1CE33, size: 0x8, addend: 0x0, symName: __ZNSt3__16vectorI7PlayersNS_9allocatorIS1_EEE9push_backB7v160006ERKS1_, symObjAddr: 0x1758, symBinAddr: 0x1000047E4, symSize: 0x6C }
  - { offsetInCU: 0x156B3, offset: 0x1CE69, size: 0x8, addend: 0x0, symName: __ZNSt3__112basic_stringIcNS_11char_traitsIcEENS_9allocatorIcEEEaSB7v160006EOS5_, symObjAddr: 0x17C4, symBinAddr: 0x100004850, symSize: 0x34 }
  - { offsetInCU: 0x156E7, offset: 0x1CE9D, size: 0x8, addend: 0x0, symName: __ZNKSt3__112basic_stringIcNS_11char_traitsIcEENS_9allocatorIcEEE7compareB7v160006ERKS5_, symObjAddr: 0x17F8, symBinAddr: 0x100004884, symSize: 0x4C }
  - { offsetInCU: 0x1571D, offset: 0x1CED3, size: 0x8, addend: 0x0, symName: __ZN10PlayerList9printListEv, symObjAddr: 0x1844, symBinAddr: 0x1000048D0, symSize: 0x2F0 }
  - { offsetInCU: 0x1577A, offset: 0x1CF30, size: 0x8, addend: 0x0, symName: __ZNSt3__113basic_ostreamIcNS_11char_traitsIcEEElsB7v160006EPFRNS_8ios_baseES5_E, symObjAddr: 0x1B34, symBinAddr: 0x100004BC0, symSize: 0x40 }
  - { offsetInCU: 0x157AD, offset: 0x1CF63, size: 0x8, addend: 0x0, symName: __ZNKSt3__16vectorINS0_I7PlayersNS_9allocatorIS1_EEEENS2_IS4_EEE4sizeB7v160006Ev, symObjAddr: 0x1C40, symBinAddr: 0x100004CCC, symSize: 0x28 }
  - { offsetInCU: 0x157D2, offset: 0x1CF88, size: 0x8, addend: 0x0, symName: __ZNSt3__16vectorINS0_I7PlayersNS_9allocatorIS1_EEEENS2_IS4_EEEixB7v160006Em, symObjAddr: 0x1C68, symBinAddr: 0x100004CF4, symSize: 0x2C }
  - { offsetInCU: 0x15808, offset: 0x1CFBE, size: 0x8, addend: 0x0, symName: __ZNKSt3__16vectorI7PlayersNS_9allocatorIS1_EEE4sizeB7v160006Ev, symObjAddr: 0x1C94, symBinAddr: 0x100004D20, symSize: 0x28 }
  - { offsetInCU: 0x1582D, offset: 0x1CFE3, size: 0x8, addend: 0x0, symName: __ZNSt3__16vectorI7PlayersNS_9allocatorIS1_EEEixB7v160006Em, symObjAddr: 0x1D08, symBinAddr: 0x100004D94, symSize: 0x2C }
  - { offsetInCU: 0x15863, offset: 0x1D019, size: 0x8, addend: 0x0, symName: __ZN7PlayersC2ERKS_, symObjAddr: 0x1D34, symBinAddr: 0x100004DC0, symSize: 0xBC }
  - { offsetInCU: 0x15897, offset: 0x1D04D, size: 0x8, addend: 0x0, symName: __ZNSt3__114basic_ifstreamIcNS_11char_traitsIcEEED2Ev, symObjAddr: 0x1DF0, symBinAddr: 0x100004E7C, symSize: 0x64 }
  - { offsetInCU: 0x158CF, offset: 0x1D085, size: 0x8, addend: 0x0, symName: __ZTv0_n24_NSt3__114basic_ifstreamIcNS_11char_traitsIcEEED1Ev, symObjAddr: 0x1E54, symBinAddr: 0x100004EE0, symSize: 0x28 }
  - { offsetInCU: 0x158E6, offset: 0x1D09C, size: 0x8, addend: 0x0, symName: __ZNSt3__18ios_base4setfB7v160006Ejj, symObjAddr: 0x1E7C, symBinAddr: 0x100004F08, symSize: 0x5C }
  - { offsetInCU: 0x1593A, offset: 0x1D0F0, size: 0x8, addend: 0x0, symName: __ZNSt3__18ios_base6unsetfB7v160006Ej, symObjAddr: 0x1ED8, symBinAddr: 0x100004F64, symSize: 0x28 }
  - { offsetInCU: 0x15970, offset: 0x1D126, size: 0x8, addend: 0x0, symName: __ZNSt3__18__iom_t6C1B7v160006Ei, symObjAddr: 0x1F00, symBinAddr: 0x100004F8C, symSize: 0x34 }
  - { offsetInCU: 0x159A6, offset: 0x1D15C, size: 0x8, addend: 0x0, symName: __ZNSt3__18__iom_t6C2B7v160006Ei, symObjAddr: 0x1F34, symBinAddr: 0x100004FC0, symSize: 0x20 }
  - { offsetInCU: 0x159DC, offset: 0x1D192, size: 0x8, addend: 0x0, symName: __ZNSt3__112basic_stringIcNS_11char_traitsIcEENS_9allocatorIcEEEC2B7v160006Ev, symObjAddr: 0x1F54, symBinAddr: 0x100004FE0, symSize: 0x54 }
  - { offsetInCU: 0x15A09, offset: 0x1D1BF, size: 0x8, addend: 0x0, symName: __ZNSt3__112basic_stringIcNS_11char_traitsIcEENS_9allocatorIcEEE14__default_initB7v160006Ev, symObjAddr: 0x2000, symBinAddr: 0x100005034, symSize: 0x40 }
  - { offsetInCU: 0x15A2E, offset: 0x1D1E4, size: 0x8, addend: 0x0, symName: __ZNSt3__117__compressed_pairINS_12basic_stringIcNS_11char_traitsIcEENS_9allocatorIcEEE5__repES5_E5firstB7v160006Ev, symObjAddr: 0x20FC, symBinAddr: 0x100005074, symSize: 0x24 }
  - { offsetInCU: 0x15A53, offset: 0x1D209, size: 0x8, addend: 0x0, symName: __ZNSt3__122__compressed_pair_elemINS_12basic_stringIcNS_11char_traitsIcEENS_9allocatorIcEEE5__repELi0ELb0EE5__getB7v160006Ev, symObjAddr: 0x2120, symBinAddr: 0x100005098, symSize: 0x14 }
  - { offsetInCU: 0x15A78, offset: 0x1D22E, size: 0x8, addend: 0x0, symName: __ZNSt3__112basic_stringIcNS_11char_traitsIcEENS_9allocatorIcEEE13__move_assignB7v160006ERS5_NS_17integral_constantIbLb1EEE, symObjAddr: 0x2134, symBinAddr: 0x1000050AC, symSize: 0xC8 }
  - { offsetInCU: 0x15ABA, offset: 0x1D270, size: 0x8, addend: 0x0, symName: __ZNKSt3__112basic_stringIcNS_11char_traitsIcEENS_9allocatorIcEEE9__is_longB7v160006Ev, symObjAddr: 0x21FC, symBinAddr: 0x100005174, symSize: 0x38 }
  - { offsetInCU: 0x15ADF, offset: 0x1D295, size: 0x8, addend: 0x0, symName: __ZNSt3__116allocator_traitsINS_9allocatorIcEEE10deallocateB7v160006ERS2_Pcm, symObjAddr: 0x2234, symBinAddr: 0x1000051AC, symSize: 0x34 }
  - { offsetInCU: 0x15B20, offset: 0x1D2D6, size: 0x8, addend: 0x0, symName: __ZNSt3__112basic_stringIcNS_11char_traitsIcEENS_9allocatorIcEEE7__allocB7v160006Ev, symObjAddr: 0x2268, symBinAddr: 0x1000051E0, symSize: 0x24 }
  - { offsetInCU: 0x15B45, offset: 0x1D2FB, size: 0x8, addend: 0x0, symName: __ZNSt3__112basic_stringIcNS_11char_traitsIcEENS_9allocatorIcEEE18__get_long_pointerB7v160006Ev, symObjAddr: 0x228C, symBinAddr: 0x100005204, symSize: 0x28 }
  - { offsetInCU: 0x15B6A, offset: 0x1D320, size: 0x8, addend: 0x0, symName: __ZNKSt3__112basic_stringIcNS_11char_traitsIcEENS_9allocatorIcEEE14__get_long_capB7v160006Ev, symObjAddr: 0x22B4, symBinAddr: 0x10000522C, symSize: 0x30 }
  - { offsetInCU: 0x15B8F, offset: 0x1D345, size: 0x8, addend: 0x0, symName: __ZNSt3__112basic_stringIcNS_11char_traitsIcEENS_9allocatorIcEEE19__move_assign_allocB7v160006ERS5_, symObjAddr: 0x22E4, symBinAddr: 0x10000525C, symSize: 0x2C }
  - { offsetInCU: 0x15BC3, offset: 0x1D379, size: 0x8, addend: 0x0, symName: __ZNSt3__112basic_stringIcNS_11char_traitsIcEENS_9allocatorIcEEE16__set_short_sizeB7v160006Em, symObjAddr: 0x2310, symBinAddr: 0x100005288, symSize: 0x78 }
  - { offsetInCU: 0x15BF7, offset: 0x1D3AD, size: 0x8, addend: 0x0, symName: __ZNSt3__111char_traitsIcE6assignERcRKc, symObjAddr: 0x2388, symBinAddr: 0x100005300, symSize: 0x24 }
  - { offsetInCU: 0x15C28, offset: 0x1D3DE, size: 0x8, addend: 0x0, symName: __ZNSt3__112basic_stringIcNS_11char_traitsIcEENS_9allocatorIcEEE19__get_short_pointerB7v160006Ev, symObjAddr: 0x23AC, symBinAddr: 0x100005324, symSize: 0x28 }
  - { offsetInCU: 0x15C4D, offset: 0x1D403, size: 0x8, addend: 0x0, symName: __ZNKSt3__117__compressed_pairINS_12basic_stringIcNS_11char_traitsIcEENS_9allocatorIcEEE5__repES5_E5firstB7v160006Ev, symObjAddr: 0x23D4, symBinAddr: 0x10000534C, symSize: 0x24 }
  - { offsetInCU: 0x15C72, offset: 0x1D428, size: 0x8, addend: 0x0, symName: __ZNKSt3__122__compressed_pair_elemINS_12basic_stringIcNS_11char_traitsIcEENS_9allocatorIcEEE5__repELi0ELb0EE5__getB7v160006Ev, symObjAddr: 0x23F8, symBinAddr: 0x100005370, symSize: 0x14 }
  - { offsetInCU: 0x15C97, offset: 0x1D44D, size: 0x8, addend: 0x0, symName: __ZNSt3__19allocatorIcE10deallocateB7v160006EPcm, symObjAddr: 0x240C, symBinAddr: 0x100005384, symSize: 0x40 }
  - { offsetInCU: 0x15CD8, offset: 0x1D48E, size: 0x8, addend: 0x0, symName: __ZNSt3__117__compressed_pairINS_12basic_stringIcNS_11char_traitsIcEENS_9allocatorIcEEE5__repES5_E6secondB7v160006Ev, symObjAddr: 0x2574, symBinAddr: 0x1000054EC, symSize: 0x24 }
  - { offsetInCU: 0x15CFD, offset: 0x1D4B3, size: 0x8, addend: 0x0, symName: __ZNSt3__122__compressed_pair_elemINS_9allocatorIcEELi1ELb1EE5__getB7v160006Ev, symObjAddr: 0x2598, symBinAddr: 0x100005510, symSize: 0x14 }
  - { offsetInCU: 0x15D22, offset: 0x1D4D8, size: 0x8, addend: 0x0, symName: __ZNSt3__112basic_stringIcNS_11char_traitsIcEENS_9allocatorIcEEE19__move_assign_allocB7v160006ERS5_NS_17integral_constantIbLb1EEE, symObjAddr: 0x25AC, symBinAddr: 0x100005524, symSize: 0x38 }
  - { offsetInCU: 0x15D62, offset: 0x1D518, size: 0x8, addend: 0x0, symName: __ZNSt3__114pointer_traitsIPcE10pointer_toB7v160006ERc, symObjAddr: 0x25E4, symBinAddr: 0x10000555C, symSize: 0x14 }
  - { offsetInCU: 0x15D85, offset: 0x1D53B, size: 0x8, addend: 0x0, symName: __ZNSt3__16vectorI7PlayersNS_9allocatorIS1_EEEC2B7v160006Ev, symObjAddr: 0x25F8, symBinAddr: 0x100005570, symSize: 0x58 }
  - { offsetInCU: 0x15DB2, offset: 0x1D568, size: 0x8, addend: 0x0, symName: __ZNSt3__117__compressed_pairIP7PlayersNS_9allocatorIS1_EEEC1B7v160006IDnNS_18__default_init_tagEEEOT_OT0_, symObjAddr: 0x2650, symBinAddr: 0x1000055C8, symSize: 0x3C }
  - { offsetInCU: 0x15E08, offset: 0x1D5BE, size: 0x8, addend: 0x0, symName: __ZNSt3__117__compressed_pairIP7PlayersNS_9allocatorIS1_EEEC2B7v160006IDnNS_18__default_init_tagEEEOT_OT0_, symObjAddr: 0x269C, symBinAddr: 0x100005614, symSize: 0x40 }
  - { offsetInCU: 0x15E5E, offset: 0x1D614, size: 0x8, addend: 0x0, symName: __ZNSt3__122__compressed_pair_elemIP7PlayersLi0ELb0EEC2B7v160006IDnvEEOT_, symObjAddr: 0x26DC, symBinAddr: 0x100005654, symSize: 0x1C }
  - { offsetInCU: 0x15E9E, offset: 0x1D654, size: 0x8, addend: 0x0, symName: __ZNSt3__122__compressed_pair_elemINS_9allocatorI7PlayersEELi1ELb1EEC2B7v160006ENS_18__default_init_tagE, symObjAddr: 0x26F8, symBinAddr: 0x100005670, symSize: 0x2C }
  - { offsetInCU: 0x15ED0, offset: 0x1D686, size: 0x8, addend: 0x0, symName: __ZNSt3__19allocatorI7PlayersEC2B7v160006Ev, symObjAddr: 0x2724, symBinAddr: 0x10000569C, symSize: 0x2C }
  - { offsetInCU: 0x15EF8, offset: 0x1D6AE, size: 0x8, addend: 0x0, symName: __ZNSt3__116__non_trivial_ifILb1ENS_9allocatorI7PlayersEEEC2B7v160006Ev, symObjAddr: 0x2750, symBinAddr: 0x1000056C8, symSize: 0x14 }
  - { offsetInCU: 0x15F20, offset: 0x1D6D6, size: 0x8, addend: 0x0, symName: __ZNSt3__16vectorINS0_I7PlayersNS_9allocatorIS1_EEEENS2_IS4_EEEC2B7v160006Ev, symObjAddr: 0x2764, symBinAddr: 0x1000056DC, symSize: 0x58 }
  - { offsetInCU: 0x15F48, offset: 0x1D6FE, size: 0x8, addend: 0x0, symName: __ZNSt3__117__compressed_pairIPNS_6vectorI7PlayersNS_9allocatorIS2_EEEENS3_IS5_EEEC1B7v160006IDnNS_18__default_init_tagEEEOT_OT0_, symObjAddr: 0x27BC, symBinAddr: 0x100005734, symSize: 0x3C }
  - { offsetInCU: 0x15F9E, offset: 0x1D754, size: 0x8, addend: 0x0, symName: __ZNSt3__117__compressed_pairIPNS_6vectorI7PlayersNS_9allocatorIS2_EEEENS3_IS5_EEEC2B7v160006IDnNS_18__default_init_tagEEEOT_OT0_, symObjAddr: 0x2808, symBinAddr: 0x100005780, symSize: 0x40 }
  - { offsetInCU: 0x15FF4, offset: 0x1D7AA, size: 0x8, addend: 0x0, symName: __ZNSt3__122__compressed_pair_elemIPNS_6vectorI7PlayersNS_9allocatorIS2_EEEELi0ELb0EEC2B7v160006IDnvEEOT_, symObjAddr: 0x2848, symBinAddr: 0x1000057C0, symSize: 0x1C }
  - { offsetInCU: 0x16034, offset: 0x1D7EA, size: 0x8, addend: 0x0, symName: __ZNSt3__122__compressed_pair_elemINS_9allocatorINS_6vectorI7PlayersNS1_IS3_EEEEEELi1ELb1EEC2B7v160006ENS_18__default_init_tagE, symObjAddr: 0x2864, symBinAddr: 0x1000057DC, symSize: 0x2C }
  - { offsetInCU: 0x16066, offset: 0x1D81C, size: 0x8, addend: 0x0, symName: __ZNSt3__19allocatorINS_6vectorI7PlayersNS0_IS2_EEEEEC2B7v160006Ev, symObjAddr: 0x2890, symBinAddr: 0x100005808, symSize: 0x2C }
  - { offsetInCU: 0x1608E, offset: 0x1D844, size: 0x8, addend: 0x0, symName: __ZNSt3__116__non_trivial_ifILb1ENS_9allocatorINS_6vectorI7PlayersNS1_IS3_EEEEEEEC2B7v160006Ev, symObjAddr: 0x28BC, symBinAddr: 0x100005834, symSize: 0x14 }
  - { offsetInCU: 0x160B6, offset: 0x1D86C, size: 0x8, addend: 0x0, symName: __ZNSt3__16vectorI7PlayersNS_9allocatorIS1_EEED2B7v160006Ev, symObjAddr: 0x28D0, symBinAddr: 0x100005848, symSize: 0x44 }
  - { offsetInCU: 0x160DE, offset: 0x1D894, size: 0x8, addend: 0x0, symName: __ZNSt3__16vectorI7PlayersNS_9allocatorIS1_EEE16__destroy_vectorC1ERS4_, symObjAddr: 0x2914, symBinAddr: 0x10000588C, symSize: 0x34 }
  - { offsetInCU: 0x16115, offset: 0x1D8CB, size: 0x8, addend: 0x0, symName: __ZNSt3__16vectorI7PlayersNS_9allocatorIS1_EEE16__destroy_vectorclB7v160006Ev, symObjAddr: 0x2948, symBinAddr: 0x1000058C0, symSize: 0x9C }
  - { offsetInCU: 0x1613A, offset: 0x1D8F0, size: 0x8, addend: 0x0, symName: __ZNSt3__16vectorI7PlayersNS_9allocatorIS1_EEE16__destroy_vectorC2ERS4_, symObjAddr: 0x29E4, symBinAddr: 0x10000595C, symSize: 0x20 }
  - { offsetInCU: 0x16171, offset: 0x1D927, size: 0x8, addend: 0x0, symName: __ZNKSt3__16vectorI7PlayersNS_9allocatorIS1_EEE17__annotate_deleteB7v160006Ev, symObjAddr: 0x2A04, symBinAddr: 0x10000597C, symSize: 0xD4 }
  - { offsetInCU: 0x16196, offset: 0x1D94C, size: 0x8, addend: 0x0, symName: __ZNSt3__16vectorI7PlayersNS_9allocatorIS1_EEE7__clearB7v160006Ev, symObjAddr: 0x2AE8, symBinAddr: 0x100005A60, symSize: 0x28 }
  - { offsetInCU: 0x161BB, offset: 0x1D971, size: 0x8, addend: 0x0, symName: __ZNSt3__116allocator_traitsINS_9allocatorI7PlayersEEE10deallocateB7v160006ERS3_PS2_m, symObjAddr: 0x2B10, symBinAddr: 0x100005A88, symSize: 0x34 }
  - { offsetInCU: 0x161FC, offset: 0x1D9B2, size: 0x8, addend: 0x0, symName: __ZNSt3__16vectorI7PlayersNS_9allocatorIS1_EEE7__allocB7v160006Ev, symObjAddr: 0x2B44, symBinAddr: 0x100005ABC, symSize: 0x28 }
  - { offsetInCU: 0x16221, offset: 0x1D9D7, size: 0x8, addend: 0x0, symName: __ZNKSt3__16vectorI7PlayersNS_9allocatorIS1_EEE8capacityB7v160006Ev, symObjAddr: 0x2B6C, symBinAddr: 0x100005AE4, symSize: 0x40 }
  - { offsetInCU: 0x16246, offset: 0x1D9FC, size: 0x8, addend: 0x0, symName: __ZNKSt3__16vectorI7PlayersNS_9allocatorIS1_EEE31__annotate_contiguous_containerB7v160006EPKvS6_S6_S6_, symObjAddr: 0x2BAC, symBinAddr: 0x100005B24, symSize: 0x20 }
  - { offsetInCU: 0x1629B, offset: 0x1DA51, size: 0x8, addend: 0x0, symName: __ZNKSt3__16vectorI7PlayersNS_9allocatorIS1_EEE4dataB7v160006Ev, symObjAddr: 0x2BCC, symBinAddr: 0x100005B44, symSize: 0x28 }
  - { offsetInCU: 0x162C0, offset: 0x1DA76, size: 0x8, addend: 0x0, symName: __ZNSt3__16vectorI7PlayersNS_9allocatorIS1_EEE22__base_destruct_at_endB7v160006EPS1_, symObjAddr: 0x2C08, symBinAddr: 0x100005B80, symSize: 0x8C }
  - { offsetInCU: 0x16303, offset: 0x1DAB9, size: 0x8, addend: 0x0, symName: __ZNSt3__116allocator_traitsINS_9allocatorI7PlayersEEE7destroyB7v160006IS2_vEEvRS3_PT_, symObjAddr: 0x2C94, symBinAddr: 0x100005C0C, symSize: 0x2C }
  - { offsetInCU: 0x1633F, offset: 0x1DAF5, size: 0x8, addend: 0x0, symName: __ZNSt3__19allocatorI7PlayersE7destroyB7v160006EPS1_, symObjAddr: 0x2CC0, symBinAddr: 0x100005C38, symSize: 0x28 }
  - { offsetInCU: 0x16372, offset: 0x1DB28, size: 0x8, addend: 0x0, symName: __ZNSt3__19allocatorI7PlayersE10deallocateB7v160006EPS1_m, symObjAddr: 0x2CE8, symBinAddr: 0x100005C60, symSize: 0x44 }
  - { offsetInCU: 0x163B3, offset: 0x1DB69, size: 0x8, addend: 0x0, symName: __ZNSt3__117__compressed_pairIP7PlayersNS_9allocatorIS1_EEE6secondB7v160006Ev, symObjAddr: 0x2D2C, symBinAddr: 0x100005CA4, symSize: 0x24 }
  - { offsetInCU: 0x163D8, offset: 0x1DB8E, size: 0x8, addend: 0x0, symName: __ZNSt3__122__compressed_pair_elemINS_9allocatorI7PlayersEELi1ELb1EE5__getB7v160006Ev, symObjAddr: 0x2D50, symBinAddr: 0x100005CC8, symSize: 0x14 }
  - { offsetInCU: 0x163FD, offset: 0x1DBB3, size: 0x8, addend: 0x0, symName: __ZNKSt3__16vectorI7PlayersNS_9allocatorIS1_EEE9__end_capB7v160006Ev, symObjAddr: 0x2D64, symBinAddr: 0x100005CDC, symSize: 0x28 }
  - { offsetInCU: 0x16422, offset: 0x1DBD8, size: 0x8, addend: 0x0, symName: __ZNKSt3__117__compressed_pairIP7PlayersNS_9allocatorIS1_EEE5firstB7v160006Ev, symObjAddr: 0x2D8C, symBinAddr: 0x100005D04, symSize: 0x24 }
  - { offsetInCU: 0x16447, offset: 0x1DBFD, size: 0x8, addend: 0x0, symName: __ZNKSt3__122__compressed_pair_elemIP7PlayersLi0ELb0EE5__getB7v160006Ev, symObjAddr: 0x2DB0, symBinAddr: 0x100005D28, symSize: 0x14 }
  - { offsetInCU: 0x1646C, offset: 0x1DC22, size: 0x8, addend: 0x0, symName: __ZNSt3__16vectorINS0_I7PlayersNS_9allocatorIS1_EEEENS2_IS4_EEED2B7v160006Ev, symObjAddr: 0x2DC4, symBinAddr: 0x100005D3C, symSize: 0x44 }
  - { offsetInCU: 0x16494, offset: 0x1DC4A, size: 0x8, addend: 0x0, symName: __ZNSt3__16vectorINS0_I7PlayersNS_9allocatorIS1_EEEENS2_IS4_EEE16__destroy_vectorC1ERS6_, symObjAddr: 0x2E08, symBinAddr: 0x100005D80, symSize: 0x34 }
  - { offsetInCU: 0x164CB, offset: 0x1DC81, size: 0x8, addend: 0x0, symName: __ZNSt3__16vectorINS0_I7PlayersNS_9allocatorIS1_EEEENS2_IS4_EEE16__destroy_vectorclB7v160006Ev, symObjAddr: 0x2E3C, symBinAddr: 0x100005DB4, symSize: 0x9C }
  - { offsetInCU: 0x164F0, offset: 0x1DCA6, size: 0x8, addend: 0x0, symName: __ZNSt3__16vectorINS0_I7PlayersNS_9allocatorIS1_EEEENS2_IS4_EEE16__destroy_vectorC2ERS6_, symObjAddr: 0x2ED8, symBinAddr: 0x100005E50, symSize: 0x20 }
  - { offsetInCU: 0x16527, offset: 0x1DCDD, size: 0x8, addend: 0x0, symName: __ZNKSt3__16vectorINS0_I7PlayersNS_9allocatorIS1_EEEENS2_IS4_EEE17__annotate_deleteB7v160006Ev, symObjAddr: 0x2EF8, symBinAddr: 0x100005E70, symSize: 0xD4 }
  - { offsetInCU: 0x1654C, offset: 0x1DD02, size: 0x8, addend: 0x0, symName: __ZNSt3__16vectorINS0_I7PlayersNS_9allocatorIS1_EEEENS2_IS4_EEE7__clearB7v160006Ev, symObjAddr: 0x2FDC, symBinAddr: 0x100005F54, symSize: 0x28 }
  - { offsetInCU: 0x16571, offset: 0x1DD27, size: 0x8, addend: 0x0, symName: __ZNSt3__116allocator_traitsINS_9allocatorINS_6vectorI7PlayersNS1_IS3_EEEEEEE10deallocateB7v160006ERS6_PS5_m, symObjAddr: 0x3004, symBinAddr: 0x100005F7C, symSize: 0x34 }
  - { offsetInCU: 0x165B2, offset: 0x1DD68, size: 0x8, addend: 0x0, symName: __ZNSt3__16vectorINS0_I7PlayersNS_9allocatorIS1_EEEENS2_IS4_EEE7__allocB7v160006Ev, symObjAddr: 0x3038, symBinAddr: 0x100005FB0, symSize: 0x28 }
  - { offsetInCU: 0x165D7, offset: 0x1DD8D, size: 0x8, addend: 0x0, symName: __ZNKSt3__16vectorINS0_I7PlayersNS_9allocatorIS1_EEEENS2_IS4_EEE8capacityB7v160006Ev, symObjAddr: 0x3060, symBinAddr: 0x100005FD8, symSize: 0x40 }
  - { offsetInCU: 0x165FC, offset: 0x1DDB2, size: 0x8, addend: 0x0, symName: __ZNKSt3__16vectorINS0_I7PlayersNS_9allocatorIS1_EEEENS2_IS4_EEE31__annotate_contiguous_containerB7v160006EPKvS8_S8_S8_, symObjAddr: 0x30A0, symBinAddr: 0x100006018, symSize: 0x20 }
  - { offsetInCU: 0x16651, offset: 0x1DE07, size: 0x8, addend: 0x0, symName: __ZNKSt3__16vectorINS0_I7PlayersNS_9allocatorIS1_EEEENS2_IS4_EEE4dataB7v160006Ev, symObjAddr: 0x30C0, symBinAddr: 0x100006038, symSize: 0x28 }
  - { offsetInCU: 0x16676, offset: 0x1DE2C, size: 0x8, addend: 0x0, symName: __ZNSt3__16vectorINS0_I7PlayersNS_9allocatorIS1_EEEENS2_IS4_EEE22__base_destruct_at_endB7v160006EPS4_, symObjAddr: 0x30FC, symBinAddr: 0x100006074, symSize: 0x8C }
  - { offsetInCU: 0x166B9, offset: 0x1DE6F, size: 0x8, addend: 0x0, symName: __ZNSt3__116allocator_traitsINS_9allocatorINS_6vectorI7PlayersNS1_IS3_EEEEEEE7destroyB7v160006IS5_vEEvRS6_PT_, symObjAddr: 0x3188, symBinAddr: 0x100006100, symSize: 0x2C }
  - { offsetInCU: 0x166F5, offset: 0x1DEAB, size: 0x8, addend: 0x0, symName: __ZNSt3__19allocatorINS_6vectorI7PlayersNS0_IS2_EEEEE7destroyB7v160006EPS4_, symObjAddr: 0x31B4, symBinAddr: 0x10000612C, symSize: 0x28 }
  - { offsetInCU: 0x16728, offset: 0x1DEDE, size: 0x8, addend: 0x0, symName: __ZNSt3__19allocatorINS_6vectorI7PlayersNS0_IS2_EEEEE10deallocateB7v160006EPS4_m, symObjAddr: 0x31DC, symBinAddr: 0x100006154, symSize: 0x44 }
  - { offsetInCU: 0x16769, offset: 0x1DF1F, size: 0x8, addend: 0x0, symName: __ZNSt3__117__compressed_pairIPNS_6vectorI7PlayersNS_9allocatorIS2_EEEENS3_IS5_EEE6secondB7v160006Ev, symObjAddr: 0x3220, symBinAddr: 0x100006198, symSize: 0x24 }
  - { offsetInCU: 0x1678E, offset: 0x1DF44, size: 0x8, addend: 0x0, symName: __ZNSt3__122__compressed_pair_elemINS_9allocatorINS_6vectorI7PlayersNS1_IS3_EEEEEELi1ELb1EE5__getB7v160006Ev, symObjAddr: 0x3244, symBinAddr: 0x1000061BC, symSize: 0x14 }
  - { offsetInCU: 0x167B3, offset: 0x1DF69, size: 0x8, addend: 0x0, symName: __ZNKSt3__16vectorINS0_I7PlayersNS_9allocatorIS1_EEEENS2_IS4_EEE9__end_capB7v160006Ev, symObjAddr: 0x3258, symBinAddr: 0x1000061D0, symSize: 0x28 }
  - { offsetInCU: 0x167D8, offset: 0x1DF8E, size: 0x8, addend: 0x0, symName: __ZNKSt3__117__compressed_pairIPNS_6vectorI7PlayersNS_9allocatorIS2_EEEENS3_IS5_EEE5firstB7v160006Ev, symObjAddr: 0x3280, symBinAddr: 0x1000061F8, symSize: 0x24 }
  - { offsetInCU: 0x167FD, offset: 0x1DFB3, size: 0x8, addend: 0x0, symName: __ZNKSt3__122__compressed_pair_elemIPNS_6vectorI7PlayersNS_9allocatorIS2_EEEELi0ELb0EE5__getB7v160006Ev, symObjAddr: 0x32A4, symBinAddr: 0x10000621C, symSize: 0x14 }
  - { offsetInCU: 0x16822, offset: 0x1DFD8, size: 0x8, addend: 0x0, symName: __ZNSt3__19basic_iosIcNS_11char_traitsIcEEEC2B7v160006Ev, symObjAddr: 0x32B8, symBinAddr: 0x100006230, symSize: 0x44 }
  - { offsetInCU: 0x1684A, offset: 0x1E000, size: 0x8, addend: 0x0, symName: __ZNSt3__113basic_istreamIcNS_11char_traitsIcEEEC2B7v160006EPNS_15basic_streambufIcS2_EE, symObjAddr: 0x32FC, symBinAddr: 0x100006274, symSize: 0x64 }
  - { offsetInCU: 0x1688C, offset: 0x1E042, size: 0x8, addend: 0x0, symName: __ZNSt3__18ios_baseC2B7v160006Ev, symObjAddr: 0x3360, symBinAddr: 0x1000062D8, symSize: 0x24 }
  - { offsetInCU: 0x168B4, offset: 0x1E06A, size: 0x8, addend: 0x0, symName: __ZNSt3__19basic_iosIcNS_11char_traitsIcEEE4initB7v160006EPNS_15basic_streambufIcS2_EE, symObjAddr: 0x3384, symBinAddr: 0x1000062FC, symSize: 0x44 }
  - { offsetInCU: 0x168EA, offset: 0x1E0A0, size: 0x8, addend: 0x0, symName: __ZNSt3__111char_traitsIcE3eofEv, symObjAddr: 0x33C8, symBinAddr: 0x100006340, symSize: 0x8 }
  - { offsetInCU: 0x168FE, offset: 0x1E0B4, size: 0x8, addend: 0x0, symName: __ZNKSt3__19basic_iosIcNS_11char_traitsIcEEE4failB7v160006Ev, symObjAddr: 0x33D0, symBinAddr: 0x100006348, symSize: 0x28 }
  - { offsetInCU: 0x16923, offset: 0x1E0D9, size: 0x8, addend: 0x0, symName: __ZNKSt3__18ios_base4failB7v160006Ev, symObjAddr: 0x33F8, symBinAddr: 0x100006370, symSize: 0x28 }
  - { offsetInCU: 0x16968, offset: 0x1E11E, size: 0x8, addend: 0x0, symName: __ZNKSt3__113basic_ostreamIcNS_11char_traitsIcEEE6sentrycvbB7v160006Ev, symObjAddr: 0x3640, symBinAddr: 0x100006584, symSize: 0x1C }
  - { offsetInCU: 0x1698D, offset: 0x1E143, size: 0x8, addend: 0x0, symName: __ZNSt3__119ostreambuf_iteratorIcNS_11char_traitsIcEEEC1B7v160006ERNS_13basic_ostreamIcS2_EE, symObjAddr: 0x389C, symBinAddr: 0x1000067E0, symSize: 0x34 }
  - { offsetInCU: 0x169C3, offset: 0x1E179, size: 0x8, addend: 0x0, symName: __ZNKSt3__18ios_base5flagsB7v160006Ev, symObjAddr: 0x38D0, symBinAddr: 0x100006814, symSize: 0x18 }
  - { offsetInCU: 0x169EA, offset: 0x1E1A0, size: 0x8, addend: 0x0, symName: __ZNKSt3__19basic_iosIcNS_11char_traitsIcEEE4fillB7v160006Ev, symObjAddr: 0x38E8, symBinAddr: 0x10000682C, symSize: 0x64 }
  - { offsetInCU: 0x16A11, offset: 0x1E1C7, size: 0x8, addend: 0x0, symName: __ZNKSt3__119ostreambuf_iteratorIcNS_11char_traitsIcEEE6failedB7v160006Ev, symObjAddr: 0x394C, symBinAddr: 0x100006890, symSize: 0x24 }
  - { offsetInCU: 0x16A36, offset: 0x1E1EC, size: 0x8, addend: 0x0, symName: __ZNSt3__19basic_iosIcNS_11char_traitsIcEEE8setstateB7v160006Ej, symObjAddr: 0x3970, symBinAddr: 0x1000068B4, symSize: 0x2C }
  - { offsetInCU: 0x16A6A, offset: 0x1E220, size: 0x8, addend: 0x0, symName: __ZNKSt3__18ios_base5widthB7v160006Ev, symObjAddr: 0x399C, symBinAddr: 0x1000068E0, symSize: 0x18 }
  - { offsetInCU: 0x16A91, offset: 0x1E247, size: 0x8, addend: 0x0, symName: __ZNSt3__115basic_streambufIcNS_11char_traitsIcEEE5sputnB7v160006EPKcl, symObjAddr: 0x39B4, symBinAddr: 0x1000068F8, symSize: 0x3C }
  - { offsetInCU: 0x16AD2, offset: 0x1E288, size: 0x8, addend: 0x0, symName: __ZNSt3__112basic_stringIcNS_11char_traitsIcEENS_9allocatorIcEEEC1B7v160006Emc, symObjAddr: 0x39F0, symBinAddr: 0x100006934, symSize: 0x3C }
  - { offsetInCU: 0x16B18, offset: 0x1E2CE, size: 0x8, addend: 0x0, symName: __ZNSt3__112basic_stringIcNS_11char_traitsIcEENS_9allocatorIcEEE4dataB7v160006Ev, symObjAddr: 0x3A2C, symBinAddr: 0x100006970, symSize: 0x28 }
  - { offsetInCU: 0x16B3D, offset: 0x1E2F3, size: 0x8, addend: 0x0, symName: __ZNSt3__18ios_base5widthB7v160006El, symObjAddr: 0x3A54, symBinAddr: 0x100006998, symSize: 0x2C }
  - { offsetInCU: 0x16B82, offset: 0x1E338, size: 0x8, addend: 0x0, symName: __ZNSt3__112basic_stringIcNS_11char_traitsIcEENS_9allocatorIcEEEC2B7v160006Emc, symObjAddr: 0x3A80, symBinAddr: 0x1000069C4, symSize: 0x54 }
  - { offsetInCU: 0x16BC8, offset: 0x1E37E, size: 0x8, addend: 0x0, symName: __ZNSt3__112basic_stringIcNS_11char_traitsIcEENS_9allocatorIcEEE13__get_pointerB7v160006Ev, symObjAddr: 0x3AE8, symBinAddr: 0x100006A2C, symSize: 0x54 }
  - { offsetInCU: 0x16BED, offset: 0x1E3A3, size: 0x8, addend: 0x0, symName: __ZNSt3__119ostreambuf_iteratorIcNS_11char_traitsIcEEEC2B7v160006ERNS_13basic_ostreamIcS2_EE, symObjAddr: 0x3B3C, symBinAddr: 0x100006A80, symSize: 0x54 }
  - { offsetInCU: 0x16C23, offset: 0x1E3D9, size: 0x8, addend: 0x0, symName: __ZNKSt3__19basic_iosIcNS_11char_traitsIcEEE5rdbufB7v160006Ev, symObjAddr: 0x3B90, symBinAddr: 0x100006AD4, symSize: 0x24 }
  - { offsetInCU: 0x16C4A, offset: 0x1E400, size: 0x8, addend: 0x0, symName: __ZNKSt3__18ios_base5rdbufB7v160006Ev, symObjAddr: 0x3BB4, symBinAddr: 0x100006AF8, symSize: 0x18 }
  - { offsetInCU: 0x16C6F, offset: 0x1E425, size: 0x8, addend: 0x0, symName: __ZNSt3__111char_traitsIcE11eq_int_typeEii, symObjAddr: 0x3BCC, symBinAddr: 0x100006B10, symSize: 0x28 }
  - { offsetInCU: 0x16CA0, offset: 0x1E456, size: 0x8, addend: 0x0, symName: __ZNKSt3__19basic_iosIcNS_11char_traitsIcEEE5widenB7v160006Ec, symObjAddr: 0x3BF4, symBinAddr: 0x100006B38, symSize: 0x84 }
  - { offsetInCU: 0x16D0D, offset: 0x1E4C3, size: 0x8, addend: 0x0, symName: __ZNKSt3__15ctypeIcE5widenB7v160006Ec, symObjAddr: 0x3CA4, symBinAddr: 0x100006BE8, symSize: 0x38 }
  - { offsetInCU: 0x16D41, offset: 0x1E4F7, size: 0x8, addend: 0x0, symName: __ZNSt3__18ios_base8setstateB7v160006Ej, symObjAddr: 0x3CDC, symBinAddr: 0x100006C20, symSize: 0x34 }
  - { offsetInCU: 0x16D95, offset: 0x1E54B, size: 0x8, addend: 0x0, symName: __ZNKSt3__113basic_istreamIcNS_11char_traitsIcEEE6sentrycvbB7v160006Ev, symObjAddr: 0x3D34, symBinAddr: 0x100006C54, symSize: 0x1C }
  - { offsetInCU: 0x16DBA, offset: 0x1E570, size: 0x8, addend: 0x0, symName: __ZNSt3__112basic_stringIcNS_11char_traitsIcEENS_9allocatorIcEEE5clearB7v160006Ev, symObjAddr: 0x3D50, symBinAddr: 0x100006C70, symSize: 0x88 }
  - { offsetInCU: 0x16DE1, offset: 0x1E597, size: 0x8, addend: 0x0, symName: __ZNSt3__115basic_streambufIcNS_11char_traitsIcEEE6sbumpcB7v160006Ev, symObjAddr: 0x3DD8, symBinAddr: 0x100006CF8, symSize: 0x78 }
  - { offsetInCU: 0x16E06, offset: 0x1E5BC, size: 0x8, addend: 0x0, symName: __ZNSt3__111char_traitsIcE12to_char_typeEi, symObjAddr: 0x3E50, symBinAddr: 0x100006D70, symSize: 0x18 }
  - { offsetInCU: 0x16E29, offset: 0x1E5DF, size: 0x8, addend: 0x0, symName: __ZNSt3__111char_traitsIcE2eqEcc, symObjAddr: 0x3E68, symBinAddr: 0x100006D88, symSize: 0x28 }
  - { offsetInCU: 0x16E5A, offset: 0x1E610, size: 0x8, addend: 0x0, symName: __ZNKSt3__112basic_stringIcNS_11char_traitsIcEENS_9allocatorIcEEE8max_sizeB7v160006Ev, symObjAddr: 0x3E90, symBinAddr: 0x100006DB0, symSize: 0xAC }
  - { offsetInCU: 0x16EAC, offset: 0x1E662, size: 0x8, addend: 0x0, symName: __ZNSt3__18ios_base18__setstate_nothrowB7v160006Ej, symObjAddr: 0x3F3C, symBinAddr: 0x100006E5C, symSize: 0x64 }
  - { offsetInCU: 0x16EE0, offset: 0x1E696, size: 0x8, addend: 0x0, symName: __ZNKSt3__19basic_iosIcNS_11char_traitsIcEEE10exceptionsB7v160006Ev, symObjAddr: 0x3FA0, symBinAddr: 0x100006EC0, symSize: 0x24 }
  - { offsetInCU: 0x16F05, offset: 0x1E6BB, size: 0x8, addend: 0x0, symName: __ZNSt3__112basic_stringIcNS_11char_traitsIcEENS_9allocatorIcEEE15__set_long_sizeB7v160006Em, symObjAddr: 0x3FD4, symBinAddr: 0x100006EF4, symSize: 0x38 }
  - { offsetInCU: 0x16F39, offset: 0x1E6EF, size: 0x8, addend: 0x0, symName: __ZNSt3__111char_traitsIcE11to_int_typeEc, symObjAddr: 0x400C, symBinAddr: 0x100006F2C, symSize: 0x14 }
  - { offsetInCU: 0x16F66, offset: 0x1E71C, size: 0x8, addend: 0x0, symName: __ZNSt3__116allocator_traitsINS_9allocatorIcEEE8max_sizeB7v160006IS2_vEEmRKS2_, symObjAddr: 0x4020, symBinAddr: 0x100006F40, symSize: 0x24 }
  - { offsetInCU: 0x16F93, offset: 0x1E749, size: 0x8, addend: 0x0, symName: __ZNKSt3__112basic_stringIcNS_11char_traitsIcEENS_9allocatorIcEEE7__allocB7v160006Ev, symObjAddr: 0x4044, symBinAddr: 0x100006F64, symSize: 0x24 }
  - { offsetInCU: 0x16FB8, offset: 0x1E76E, size: 0x8, addend: 0x0, symName: __ZNSt3__114numeric_limitsImE3maxB7v160006Ev, symObjAddr: 0x4068, symBinAddr: 0x100006F88, symSize: 0x14 }
  - { offsetInCU: 0x16FCC, offset: 0x1E782, size: 0x8, addend: 0x0, symName: __ZNKSt3__19allocatorIcE8max_sizeB7v160006Ev, symObjAddr: 0x407C, symBinAddr: 0x100006F9C, symSize: 0x14 }
  - { offsetInCU: 0x16FF1, offset: 0x1E7A7, size: 0x8, addend: 0x0, symName: __ZNKSt3__117__compressed_pairINS_12basic_stringIcNS_11char_traitsIcEENS_9allocatorIcEEE5__repES5_E6secondB7v160006Ev, symObjAddr: 0x4090, symBinAddr: 0x100006FB0, symSize: 0x24 }
  - { offsetInCU: 0x17016, offset: 0x1E7CC, size: 0x8, addend: 0x0, symName: __ZNKSt3__122__compressed_pair_elemINS_9allocatorIcEELi1ELb1EE5__getB7v160006Ev, symObjAddr: 0x40B4, symBinAddr: 0x100006FD4, symSize: 0x14 }
  - { offsetInCU: 0x1703B, offset: 0x1E7F1, size: 0x8, addend: 0x0, symName: __ZNSt3__123__libcpp_numeric_limitsImLb1EE3maxB7v160006Ev, symObjAddr: 0x40C8, symBinAddr: 0x100006FE8, symSize: 0x8 }
  - { offsetInCU: 0x1704F, offset: 0x1E805, size: 0x8, addend: 0x0, symName: __ZNKSt3__18ios_base10exceptionsB7v160006Ev, symObjAddr: 0x40D0, symBinAddr: 0x100006FF0, symSize: 0x18 }
  - { offsetInCU: 0x17076, offset: 0x1E82C, size: 0x8, addend: 0x0, symName: __ZNKSt3__18ios_base3eofB7v160006Ev, symObjAddr: 0x40E8, symBinAddr: 0x100007008, symSize: 0x24 }
  - { offsetInCU: 0x1709D, offset: 0x1E853, size: 0x8, addend: 0x0, symName: __ZNSt3__16vectorINS0_I7PlayersNS_9allocatorIS1_EEEENS2_IS4_EEE9__end_capB7v160006Ev, symObjAddr: 0x416C, symBinAddr: 0x10000702C, symSize: 0x28 }
  - { offsetInCU: 0x170C2, offset: 0x1E878, size: 0x8, addend: 0x0, symName: __ZNSt3__16vectorINS0_I7PlayersNS_9allocatorIS1_EEEENS2_IS4_EEE22__construct_one_at_endB7v160006IJRKS4_EEEvDpOT_, symObjAddr: 0x4194, symBinAddr: 0x100007054, symSize: 0x90 }
  - { offsetInCU: 0x17110, offset: 0x1E8C6, size: 0x8, addend: 0x0, symName: __ZNSt3__16vectorINS0_I7PlayersNS_9allocatorIS1_EEEENS2_IS4_EEE21__push_back_slow_pathIRKS4_EEvOT_, symObjAddr: 0x4224, symBinAddr: 0x1000070E4, symSize: 0xD8 }
  - { offsetInCU: 0x1716D, offset: 0x1E923, size: 0x8, addend: 0x0, symName: __ZNSt3__117__compressed_pairIPNS_6vectorI7PlayersNS_9allocatorIS2_EEEENS3_IS5_EEE5firstB7v160006Ev, symObjAddr: 0x42FC, symBinAddr: 0x1000071BC, symSize: 0x24 }
  - { offsetInCU: 0x17192, offset: 0x1E948, size: 0x8, addend: 0x0, symName: __ZNSt3__122__compressed_pair_elemIPNS_6vectorI7PlayersNS_9allocatorIS2_EEEELi0ELb0EE5__getB7v160006Ev, symObjAddr: 0x4320, symBinAddr: 0x1000071E0, symSize: 0x14 }
  - { offsetInCU: 0x171D0, offset: 0x1E986, size: 0x8, addend: 0x0, symName: __ZNSt3__16vectorINS0_I7PlayersNS_9allocatorIS1_EEEENS2_IS4_EEE21_ConstructTransactionC1B7v160006ERS6_m, symObjAddr: 0x4334, symBinAddr: 0x1000071F4, symSize: 0x3C }
  - { offsetInCU: 0x17216, offset: 0x1E9CC, size: 0x8, addend: 0x0, symName: __ZNSt3__116allocator_traitsINS_9allocatorINS_6vectorI7PlayersNS1_IS3_EEEEEEE9constructB7v160006IS5_JRKS5_EvEEvRS6_PT_DpOT0_, symObjAddr: 0x4370, symBinAddr: 0x100007230, symSize: 0x34 }
  - { offsetInCU: 0x1726C, offset: 0x1EA22, size: 0x8, addend: 0x0, symName: __ZNSt3__16vectorINS0_I7PlayersNS_9allocatorIS1_EEEENS2_IS4_EEE21_ConstructTransactionD1B7v160006Ev, symObjAddr: 0x43A4, symBinAddr: 0x100007264, symSize: 0x2C }
  - { offsetInCU: 0x17294, offset: 0x1EA4A, size: 0x8, addend: 0x0, symName: __ZNSt3__16vectorINS0_I7PlayersNS_9allocatorIS1_EEEENS2_IS4_EEE21_ConstructTransactionC2B7v160006ERS6_m, symObjAddr: 0x43D0, symBinAddr: 0x100007290, symSize: 0x4C }
  - { offsetInCU: 0x172DA, offset: 0x1EA90, size: 0x8, addend: 0x0, symName: __ZNSt3__19allocatorINS_6vectorI7PlayersNS0_IS2_EEEEE9constructB7v160006IS4_JRKS4_EEEvPT_DpOT0_, symObjAddr: 0x441C, symBinAddr: 0x1000072DC, symSize: 0x30 }
  - { offsetInCU: 0x1732F, offset: 0x1EAE5, size: 0x8, addend: 0x0, symName: __ZNSt3__16vectorI7PlayersNS_9allocatorIS1_EEEC1ERKS4_, symObjAddr: 0x444C, symBinAddr: 0x10000730C, symSize: 0x34 }
  - { offsetInCU: 0x17369, offset: 0x1EB1F, size: 0x8, addend: 0x0, symName: __ZNSt3__16vectorI7PlayersNS_9allocatorIS1_EEEC2ERKS4_, symObjAddr: 0x4480, symBinAddr: 0x100007340, symSize: 0x110 }
  - { offsetInCU: 0x173D1, offset: 0x1EB87, size: 0x8, addend: 0x0, symName: __ZNSt3__116allocator_traitsINS_9allocatorI7PlayersEEE37select_on_container_copy_constructionB7v160006IS3_vvEES3_RKS3_, symObjAddr: 0x4590, symBinAddr: 0x100007450, symSize: 0x10 }
  - { offsetInCU: 0x17400, offset: 0x1EBB6, size: 0x8, addend: 0x0, symName: __ZNKSt3__16vectorI7PlayersNS_9allocatorIS1_EEE7__allocB7v160006Ev, symObjAddr: 0x45A0, symBinAddr: 0x100007460, symSize: 0x28 }
  - { offsetInCU: 0x1742A, offset: 0x1EBE0, size: 0x8, addend: 0x0, symName: __ZNSt3__117__compressed_pairIP7PlayersNS_9allocatorIS1_EEEC1B7v160006IDnS4_EEOT_OT0_, symObjAddr: 0x45C8, symBinAddr: 0x100007488, symSize: 0x3C }
  - { offsetInCU: 0x17480, offset: 0x1EC36, size: 0x8, addend: 0x0, symName: __ZNSt3__16vectorI7PlayersNS_9allocatorIS1_EEE11__vallocateB7v160006Em, symObjAddr: 0x4644, symBinAddr: 0x100007504, symSize: 0xB4 }
  - { offsetInCU: 0x174C3, offset: 0x1EC79, size: 0x8, addend: 0x0, symName: __ZNSt3__16vectorI7PlayersNS_9allocatorIS1_EEE18__construct_at_endIPS1_Li0EEEvT_S7_m, symObjAddr: 0x46F8, symBinAddr: 0x1000075B8, symSize: 0x8C }
  - { offsetInCU: 0x17535, offset: 0x1ECEB, size: 0x8, addend: 0x0, symName: __ZNSt3__128__exception_guard_exceptionsINS_6vectorI7PlayersNS_9allocatorIS2_EEE16__destroy_vectorEE10__completeB7v160006Ev, symObjAddr: 0x4784, symBinAddr: 0x100007644, symSize: 0x1C }
  - { offsetInCU: 0x1755A, offset: 0x1ED10, size: 0x8, addend: 0x0, symName: __ZNSt3__128__exception_guard_exceptionsINS_6vectorI7PlayersNS_9allocatorIS2_EEE16__destroy_vectorEED1B7v160006Ev, symObjAddr: 0x47A0, symBinAddr: 0x100007660, symSize: 0x2C }
  - { offsetInCU: 0x17582, offset: 0x1ED38, size: 0x8, addend: 0x0, symName: __ZNKSt3__117__compressed_pairIP7PlayersNS_9allocatorIS1_EEE6secondB7v160006Ev, symObjAddr: 0x47CC, symBinAddr: 0x10000768C, symSize: 0x24 }
  - { offsetInCU: 0x175A7, offset: 0x1ED5D, size: 0x8, addend: 0x0, symName: __ZNKSt3__122__compressed_pair_elemINS_9allocatorI7PlayersEELi1ELb1EE5__getB7v160006Ev, symObjAddr: 0x47F0, symBinAddr: 0x1000076B0, symSize: 0x14 }
  - { offsetInCU: 0x175CC, offset: 0x1ED82, size: 0x8, addend: 0x0, symName: __ZNSt3__117__compressed_pairIP7PlayersNS_9allocatorIS1_EEEC2B7v160006IDnS4_EEOT_OT0_, symObjAddr: 0x4804, symBinAddr: 0x1000076C4, symSize: 0x44 }
  - { offsetInCU: 0x17622, offset: 0x1EDD8, size: 0x8, addend: 0x0, symName: __ZNSt3__122__compressed_pair_elemINS_9allocatorI7PlayersEELi1ELb1EEC2B7v160006IS3_vEEOT_, symObjAddr: 0x4848, symBinAddr: 0x100007708, symSize: 0x18 }
  - { offsetInCU: 0x17662, offset: 0x1EE18, size: 0x8, addend: 0x0, symName: __ZNSt3__128__exception_guard_exceptionsINS_6vectorI7PlayersNS_9allocatorIS2_EEE16__destroy_vectorEEC1B7v160006ES6_, symObjAddr: 0x4860, symBinAddr: 0x100007720, symSize: 0x34 }
  - { offsetInCU: 0x17698, offset: 0x1EE4E, size: 0x8, addend: 0x0, symName: __ZNSt3__128__exception_guard_exceptionsINS_6vectorI7PlayersNS_9allocatorIS2_EEE16__destroy_vectorEEC2B7v160006ES6_, symObjAddr: 0x4894, symBinAddr: 0x100007754, symSize: 0x24 }
  - { offsetInCU: 0x176CE, offset: 0x1EE84, size: 0x8, addend: 0x0, symName: __ZNKSt3__16vectorI7PlayersNS_9allocatorIS1_EEE8max_sizeEv, symObjAddr: 0x48B8, symBinAddr: 0x100007778, symSize: 0x60 }
  - { offsetInCU: 0x176F5, offset: 0x1EEAB, size: 0x8, addend: 0x0, symName: __ZNKSt3__16vectorI7PlayersNS_9allocatorIS1_EEE20__throw_length_errorB7v160006Ev, symObjAddr: 0x4918, symBinAddr: 0x1000077D8, symSize: 0x1C }
  - { offsetInCU: 0x1771A, offset: 0x1EED0, size: 0x8, addend: 0x0, symName: __ZNSt3__16vectorI7PlayersNS_9allocatorIS1_EEE9__end_capB7v160006Ev, symObjAddr: 0x4974, symBinAddr: 0x100007834, symSize: 0x28 }
  - { offsetInCU: 0x1773F, offset: 0x1EEF5, size: 0x8, addend: 0x0, symName: __ZNKSt3__16vectorI7PlayersNS_9allocatorIS1_EEE14__annotate_newB7v160006Em, symObjAddr: 0x499C, symBinAddr: 0x10000785C, symSize: 0xC8 }
  - { offsetInCU: 0x17773, offset: 0x1EF29, size: 0x8, addend: 0x0, symName: __ZNSt3__116allocator_traitsINS_9allocatorI7PlayersEEE8max_sizeB7v160006IS3_vEEmRKS3_, symObjAddr: 0x4A90, symBinAddr: 0x100007950, symSize: 0x24 }
  - { offsetInCU: 0x177A0, offset: 0x1EF56, size: 0x8, addend: 0x0, symName: __ZNSt3__114numeric_limitsIlE3maxB7v160006Ev, symObjAddr: 0x4AB4, symBinAddr: 0x100007974, symSize: 0x14 }
  - { offsetInCU: 0x177C8, offset: 0x1EF7E, size: 0x8, addend: 0x0, symName: __ZNKSt3__16__lessImmEclB7v160006ERKmS3_, symObjAddr: 0x4B1C, symBinAddr: 0x1000079DC, symSize: 0x34 }
  - { offsetInCU: 0x17809, offset: 0x1EFBF, size: 0x8, addend: 0x0, symName: __ZNKSt3__19allocatorI7PlayersE8max_sizeB7v160006Ev, symObjAddr: 0x4B50, symBinAddr: 0x100007A10, symSize: 0x18 }
  - { offsetInCU: 0x1782E, offset: 0x1EFE4, size: 0x8, addend: 0x0, symName: __ZNSt3__123__libcpp_numeric_limitsIlLb1EE3maxB7v160006Ev, symObjAddr: 0x4B68, symBinAddr: 0x100007A28, symSize: 0x8 }
  - { offsetInCU: 0x17842, offset: 0x1EFF8, size: 0x8, addend: 0x0, symName: __ZNSt12length_errorC1B7v160006EPKc, symObjAddr: 0x4BD4, symBinAddr: 0x100007A94, symSize: 0x34 }
  - { offsetInCU: 0x17878, offset: 0x1F02E, size: 0x8, addend: 0x0, symName: __ZNSt12length_errorC2B7v160006EPKc, symObjAddr: 0x4C08, symBinAddr: 0x100007AC8, symSize: 0x4C }
  - { offsetInCU: 0x178AE, offset: 0x1F064, size: 0x8, addend: 0x0, symName: __ZNSt3__19allocatorI7PlayersE8allocateB7v160006Em, symObjAddr: 0x4C54, symBinAddr: 0x100007B14, symSize: 0x5C }
  - { offsetInCU: 0x178E1, offset: 0x1F097, size: 0x8, addend: 0x0, symName: __ZNSt3__117__compressed_pairIP7PlayersNS_9allocatorIS1_EEE5firstB7v160006Ev, symObjAddr: 0x4D94, symBinAddr: 0x100007C54, symSize: 0x24 }
  - { offsetInCU: 0x17906, offset: 0x1F0BC, size: 0x8, addend: 0x0, symName: __ZNSt3__122__compressed_pair_elemIP7PlayersLi0ELb0EE5__getB7v160006Ev, symObjAddr: 0x4DB8, symBinAddr: 0x100007C78, symSize: 0x14 }
  - { offsetInCU: 0x17944, offset: 0x1F0FA, size: 0x8, addend: 0x0, symName: __ZNSt3__16vectorI7PlayersNS_9allocatorIS1_EEE21_ConstructTransactionC1B7v160006ERS4_m, symObjAddr: 0x4DCC, symBinAddr: 0x100007C8C, symSize: 0x3C }
  - { offsetInCU: 0x1798A, offset: 0x1F140, size: 0x8, addend: 0x0, symName: __ZNSt3__16vectorI7PlayersNS_9allocatorIS1_EEE21_ConstructTransactionD1B7v160006Ev, symObjAddr: 0x4EFC, symBinAddr: 0x100007DBC, symSize: 0x2C }
  - { offsetInCU: 0x179B2, offset: 0x1F168, size: 0x8, addend: 0x0, symName: __ZNSt3__16vectorI7PlayersNS_9allocatorIS1_EEE21_ConstructTransactionC2B7v160006ERS4_m, symObjAddr: 0x4F28, symBinAddr: 0x100007DE8, symSize: 0x4C }
  - { offsetInCU: 0x179F8, offset: 0x1F1AE, size: 0x8, addend: 0x0, symName: __ZNSt3__129_AllocatorDestroyRangeReverseINS_9allocatorI7PlayersEEPS2_EC1B7v160006ERS3_RS4_S7_, symObjAddr: 0x4FC0, symBinAddr: 0x100007E80, symSize: 0x44 }
  - { offsetInCU: 0x17A4D, offset: 0x1F203, size: 0x8, addend: 0x0, symName: __ZNSt3__116allocator_traitsINS_9allocatorI7PlayersEEE9constructB7v160006IS2_JRS2_EvEEvRS3_PT_DpOT0_, symObjAddr: 0x5004, symBinAddr: 0x100007EC4, symSize: 0x34 }
  - { offsetInCU: 0x17AA3, offset: 0x1F259, size: 0x8, addend: 0x0, symName: __ZNSt3__128__exception_guard_exceptionsINS_29_AllocatorDestroyRangeReverseINS_9allocatorI7PlayersEEPS3_EEE10__completeB7v160006Ev, symObjAddr: 0x5038, symBinAddr: 0x100007EF8, symSize: 0x1C }
  - { offsetInCU: 0x17AC8, offset: 0x1F27E, size: 0x8, addend: 0x0, symName: __ZNSt3__128__exception_guard_exceptionsINS_29_AllocatorDestroyRangeReverseINS_9allocatorI7PlayersEEPS3_EEED1B7v160006Ev, symObjAddr: 0x5054, symBinAddr: 0x100007F14, symSize: 0x2C }
  - { offsetInCU: 0x17AF0, offset: 0x1F2A6, size: 0x8, addend: 0x0, symName: __ZNSt3__128__exception_guard_exceptionsINS_29_AllocatorDestroyRangeReverseINS_9allocatorI7PlayersEEPS3_EEEC1B7v160006ES6_, symObjAddr: 0x5080, symBinAddr: 0x100007F40, symSize: 0x34 }
  - { offsetInCU: 0x17B27, offset: 0x1F2DD, size: 0x8, addend: 0x0, symName: __ZNSt3__128__exception_guard_exceptionsINS_29_AllocatorDestroyRangeReverseINS_9allocatorI7PlayersEEPS3_EEEC2B7v160006ES6_, symObjAddr: 0x50B4, symBinAddr: 0x100007F74, symSize: 0x30 }
  - { offsetInCU: 0x17B5E, offset: 0x1F314, size: 0x8, addend: 0x0, symName: __ZNSt3__129_AllocatorDestroyRangeReverseINS_9allocatorI7PlayersEEPS2_EC2B7v160006ERS3_RS4_S7_, symObjAddr: 0x50E4, symBinAddr: 0x100007FA4, symSize: 0x38 }
  - { offsetInCU: 0x17BB3, offset: 0x1F369, size: 0x8, addend: 0x0, symName: __ZNSt3__19allocatorI7PlayersE9constructB7v160006IS1_JRS1_EEEvPT_DpOT0_, symObjAddr: 0x511C, symBinAddr: 0x100007FDC, symSize: 0x30 }
  - { offsetInCU: 0x17C08, offset: 0x1F3BE, size: 0x8, addend: 0x0, symName: __ZNSt3__128__exception_guard_exceptionsINS_29_AllocatorDestroyRangeReverseINS_9allocatorI7PlayersEEPS3_EEED2B7v160006Ev, symObjAddr: 0x514C, symBinAddr: 0x10000800C, symSize: 0x50 }
  - { offsetInCU: 0x17C30, offset: 0x1F3E6, size: 0x8, addend: 0x0, symName: __ZNKSt3__129_AllocatorDestroyRangeReverseINS_9allocatorI7PlayersEEPS2_EclB7v160006Ev, symObjAddr: 0x519C, symBinAddr: 0x10000805C, symSize: 0x68 }
  - { offsetInCU: 0x17C55, offset: 0x1F40B, size: 0x8, addend: 0x0, symName: __ZNSt3__116reverse_iteratorIP7PlayersEC1B7v160006ES2_, symObjAddr: 0x5274, symBinAddr: 0x100008134, symSize: 0x34 }
  - { offsetInCU: 0x17C8B, offset: 0x1F441, size: 0x8, addend: 0x0, symName: __ZNSt3__116reverse_iteratorIP7PlayersEppB7v160006Ev, symObjAddr: 0x5314, symBinAddr: 0x1000081D4, symSize: 0x20 }
  - { offsetInCU: 0x17CB0, offset: 0x1F466, size: 0x8, addend: 0x0, symName: __ZNKSt3__116reverse_iteratorIP7PlayersE4baseB7v160006Ev, symObjAddr: 0x5334, symBinAddr: 0x1000081F4, symSize: 0x18 }
  - { offsetInCU: 0x17CDA, offset: 0x1F490, size: 0x8, addend: 0x0, symName: __ZNSt3__119__to_address_helperINS_16reverse_iteratorIP7PlayersEEvE6__callB7v160006ERKS4_, symObjAddr: 0x534C, symBinAddr: 0x10000820C, symSize: 0x38 }
  - { offsetInCU: 0x17CFC, offset: 0x1F4B2, size: 0x8, addend: 0x0, symName: __ZNKSt3__116reverse_iteratorIP7PlayersEptB7v160006Ev, symObjAddr: 0x5384, symBinAddr: 0x100008244, symSize: 0x24 }
  - { offsetInCU: 0x17D21, offset: 0x1F4D7, size: 0x8, addend: 0x0, symName: __ZNKSt3__116reverse_iteratorIP7PlayersEdeB7v160006Ev, symObjAddr: 0x53A8, symBinAddr: 0x100008268, symSize: 0x28 }
  - { offsetInCU: 0x17D54, offset: 0x1F50A, size: 0x8, addend: 0x0, symName: __ZNSt3__116reverse_iteratorIP7PlayersEC2B7v160006ES2_, symObjAddr: 0x53D0, symBinAddr: 0x100008290, symSize: 0x28 }
  - { offsetInCU: 0x17D8A, offset: 0x1F540, size: 0x8, addend: 0x0, symName: __ZNSt3__16vectorI7PlayersNS_9allocatorIS1_EEE21_ConstructTransactionD2B7v160006Ev, symObjAddr: 0x53F8, symBinAddr: 0x1000082B8, symSize: 0x20 }
  - { offsetInCU: 0x17DB2, offset: 0x1F568, size: 0x8, addend: 0x0, symName: __ZNSt3__128__exception_guard_exceptionsINS_6vectorI7PlayersNS_9allocatorIS2_EEE16__destroy_vectorEED2B7v160006Ev, symObjAddr: 0x5418, symBinAddr: 0x1000082D8, symSize: 0x50 }
  - { offsetInCU: 0x17DDA, offset: 0x1F590, size: 0x8, addend: 0x0, symName: __ZNSt3__16vectorINS0_I7PlayersNS_9allocatorIS1_EEEENS2_IS4_EEE21_ConstructTransactionD2B7v160006Ev, symObjAddr: 0x5468, symBinAddr: 0x100008328, symSize: 0x20 }
  - { offsetInCU: 0x17E02, offset: 0x1F5B8, size: 0x8, addend: 0x0, symName: __ZNKSt3__16vectorINS0_I7PlayersNS_9allocatorIS1_EEEENS2_IS4_EEE11__recommendB7v160006Em, symObjAddr: 0x5488, symBinAddr: 0x100008348, symSize: 0xB4 }
  - { offsetInCU: 0x17E56, offset: 0x1F60C, size: 0x8, addend: 0x0, symName: __ZNSt3__114__split_bufferINS_6vectorI7PlayersNS_9allocatorIS2_EEEERNS3_IS5_EEEC1EmmS7_, symObjAddr: 0x553C, symBinAddr: 0x1000083FC, symSize: 0x44 }
  - { offsetInCU: 0x17EAB, offset: 0x1F661, size: 0x8, addend: 0x0, symName: __ZNSt3__114__split_bufferINS_6vectorI7PlayersNS_9allocatorIS2_EEEERNS3_IS5_EEED1Ev, symObjAddr: 0x5698, symBinAddr: 0x100008558, symSize: 0x2C }
  - { offsetInCU: 0x17ED6, offset: 0x1F68C, size: 0x8, addend: 0x0, symName: __ZNKSt3__16vectorINS0_I7PlayersNS_9allocatorIS1_EEEENS2_IS4_EEE8max_sizeEv, symObjAddr: 0x56C4, symBinAddr: 0x100008584, symSize: 0x60 }
  - { offsetInCU: 0x17EFD, offset: 0x1F6B3, size: 0x8, addend: 0x0, symName: __ZNKSt3__16vectorINS0_I7PlayersNS_9allocatorIS1_EEEENS2_IS4_EEE20__throw_length_errorB7v160006Ev, symObjAddr: 0x5724, symBinAddr: 0x1000085E4, symSize: 0x1C }
  - { offsetInCU: 0x17F2C, offset: 0x1F6E2, size: 0x8, addend: 0x0, symName: __ZNSt3__116allocator_traitsINS_9allocatorINS_6vectorI7PlayersNS1_IS3_EEEEEEE8max_sizeB7v160006IS6_vEEmRKS6_, symObjAddr: 0x576C, symBinAddr: 0x10000862C, symSize: 0x24 }
  - { offsetInCU: 0x17F59, offset: 0x1F70F, size: 0x8, addend: 0x0, symName: __ZNKSt3__16vectorINS0_I7PlayersNS_9allocatorIS1_EEEENS2_IS4_EEE7__allocB7v160006Ev, symObjAddr: 0x5790, symBinAddr: 0x100008650, symSize: 0x28 }
  - { offsetInCU: 0x17F7E, offset: 0x1F734, size: 0x8, addend: 0x0, symName: __ZNKSt3__19allocatorINS_6vectorI7PlayersNS0_IS2_EEEEE8max_sizeB7v160006Ev, symObjAddr: 0x57B8, symBinAddr: 0x100008678, symSize: 0x18 }
  - { offsetInCU: 0x17FA3, offset: 0x1F759, size: 0x8, addend: 0x0, symName: __ZNKSt3__117__compressed_pairIPNS_6vectorI7PlayersNS_9allocatorIS2_EEEENS3_IS5_EEE6secondB7v160006Ev, symObjAddr: 0x57D0, symBinAddr: 0x100008690, symSize: 0x24 }
  - { offsetInCU: 0x17FC8, offset: 0x1F77E, size: 0x8, addend: 0x0, symName: __ZNKSt3__122__compressed_pair_elemINS_9allocatorINS_6vectorI7PlayersNS1_IS3_EEEEEELi1ELb1EE5__getB7v160006Ev, symObjAddr: 0x57F4, symBinAddr: 0x1000086B4, symSize: 0x14 }
  - { offsetInCU: 0x17FED, offset: 0x1F7A3, size: 0x8, addend: 0x0, symName: __ZNSt3__114__split_bufferINS_6vectorI7PlayersNS_9allocatorIS2_EEEERNS3_IS5_EEEC2EmmS7_, symObjAddr: 0x585C, symBinAddr: 0x10000871C, symSize: 0xE0 }
  - { offsetInCU: 0x18060, offset: 0x1F816, size: 0x8, addend: 0x0, symName: __ZNSt3__117__compressed_pairIPNS_6vectorI7PlayersNS_9allocatorIS2_EEEERNS3_IS5_EEEC1B7v160006IDnS8_EEOT_OT0_, symObjAddr: 0x593C, symBinAddr: 0x1000087FC, symSize: 0x3C }
  - { offsetInCU: 0x180B6, offset: 0x1F86C, size: 0x8, addend: 0x0, symName: __ZNSt3__114__split_bufferINS_6vectorI7PlayersNS_9allocatorIS2_EEEERNS3_IS5_EEE7__allocB7v160006Ev, symObjAddr: 0x59B8, symBinAddr: 0x100008878, symSize: 0x28 }
  - { offsetInCU: 0x180DB, offset: 0x1F891, size: 0x8, addend: 0x0, symName: __ZNSt3__114__split_bufferINS_6vectorI7PlayersNS_9allocatorIS2_EEEERNS3_IS5_EEE9__end_capB7v160006Ev, symObjAddr: 0x59E0, symBinAddr: 0x1000088A0, symSize: 0x28 }
  - { offsetInCU: 0x18100, offset: 0x1F8B6, size: 0x8, addend: 0x0, symName: __ZNSt3__117__compressed_pairIPNS_6vectorI7PlayersNS_9allocatorIS2_EEEERNS3_IS5_EEEC2B7v160006IDnS8_EEOT_OT0_, symObjAddr: 0x5A08, symBinAddr: 0x1000088C8, symSize: 0x48 }
  - { offsetInCU: 0x18156, offset: 0x1F90C, size: 0x8, addend: 0x0, symName: __ZNSt3__122__compressed_pair_elemIRNS_9allocatorINS_6vectorI7PlayersNS1_IS3_EEEEEELi1ELb0EEC2B7v160006IS7_vEEOT_, symObjAddr: 0x5A50, symBinAddr: 0x100008910, symSize: 0x20 }
  - { offsetInCU: 0x18196, offset: 0x1F94C, size: 0x8, addend: 0x0, symName: __ZNSt3__19allocatorINS_6vectorI7PlayersNS0_IS2_EEEEE8allocateB7v160006Em, symObjAddr: 0x5A70, symBinAddr: 0x100008930, symSize: 0x5C }
  - { offsetInCU: 0x181C9, offset: 0x1F97F, size: 0x8, addend: 0x0, symName: __ZNSt3__117__compressed_pairIPNS_6vectorI7PlayersNS_9allocatorIS2_EEEERNS3_IS5_EEE6secondB7v160006Ev, symObjAddr: 0x5ACC, symBinAddr: 0x10000898C, symSize: 0x28 }
  - { offsetInCU: 0x181EE, offset: 0x1F9A4, size: 0x8, addend: 0x0, symName: __ZNSt3__122__compressed_pair_elemIRNS_9allocatorINS_6vectorI7PlayersNS1_IS3_EEEEEELi1ELb0EE5__getB7v160006Ev, symObjAddr: 0x5AF4, symBinAddr: 0x1000089B4, symSize: 0x18 }
  - { offsetInCU: 0x18213, offset: 0x1F9C9, size: 0x8, addend: 0x0, symName: __ZNSt3__117__compressed_pairIPNS_6vectorI7PlayersNS_9allocatorIS2_EEEERNS3_IS5_EEE5firstB7v160006Ev, symObjAddr: 0x5B0C, symBinAddr: 0x1000089CC, symSize: 0x24 }
  - { offsetInCU: 0x18238, offset: 0x1F9EE, size: 0x8, addend: 0x0, symName: __ZNSt3__116reverse_iteratorIPNS_6vectorI7PlayersNS_9allocatorIS2_EEEEEC1B7v160006ES6_, symObjAddr: 0x5C5C, symBinAddr: 0x100008B1C, symSize: 0x34 }
  - { offsetInCU: 0x1826E, offset: 0x1FA24, size: 0x8, addend: 0x0, symName: __ZNKSt3__116reverse_iteratorIPNS_6vectorI7PlayersNS_9allocatorIS2_EEEEE4baseB7v160006Ev, symObjAddr: 0x5C90, symBinAddr: 0x100008B50, symSize: 0x18 }
  - { offsetInCU: 0x18293, offset: 0x1FA49, size: 0x8, addend: 0x0, symName: __ZNKSt3__16vectorINS0_I7PlayersNS_9allocatorIS1_EEEENS2_IS4_EEE14__annotate_newB7v160006Em, symObjAddr: 0x5CE4, symBinAddr: 0x100008BA4, symSize: 0xC8 }
  - { offsetInCU: 0x182C7, offset: 0x1FA7D, size: 0x8, addend: 0x0, symName: __ZNSt3__129_AllocatorDestroyRangeReverseINS_9allocatorINS_6vectorI7PlayersNS1_IS3_EEEEEENS_16reverse_iteratorIPS5_EEEC1B7v160006ERS6_RS9_SC_, symObjAddr: 0x5E08, symBinAddr: 0x100008CC8, symSize: 0x44 }
  - { offsetInCU: 0x1831C, offset: 0x1FAD2, size: 0x8, addend: 0x0, symName: __ZNSt3__116allocator_traitsINS_9allocatorINS_6vectorI7PlayersNS1_IS3_EEEEEEE9constructB7v160006IS5_JS5_EvEEvRS6_PT_DpOT0_, symObjAddr: 0x5E94, symBinAddr: 0x100008D54, symSize: 0x34 }
  - { offsetInCU: 0x18372, offset: 0x1FB28, size: 0x8, addend: 0x0, symName: __ZNKSt3__116reverse_iteratorIPNS_6vectorI7PlayersNS_9allocatorIS2_EEEEEdeB7v160006Ev, symObjAddr: 0x5EEC, symBinAddr: 0x100008DAC, symSize: 0x28 }
  - { offsetInCU: 0x183A5, offset: 0x1FB5B, size: 0x8, addend: 0x0, symName: __ZNSt3__116reverse_iteratorIPNS_6vectorI7PlayersNS_9allocatorIS2_EEEEEppB7v160006Ev, symObjAddr: 0x5F14, symBinAddr: 0x100008DD4, symSize: 0x20 }
  - { offsetInCU: 0x183CA, offset: 0x1FB80, size: 0x8, addend: 0x0, symName: __ZNSt3__128__exception_guard_exceptionsINS_29_AllocatorDestroyRangeReverseINS_9allocatorINS_6vectorI7PlayersNS2_IS4_EEEEEENS_16reverse_iteratorIPS6_EEEEE10__completeB7v160006Ev, symObjAddr: 0x5F34, symBinAddr: 0x100008DF4, symSize: 0x1C }
  - { offsetInCU: 0x183EF, offset: 0x1FBA5, size: 0x8, addend: 0x0, symName: __ZNSt3__128__exception_guard_exceptionsINS_29_AllocatorDestroyRangeReverseINS_9allocatorINS_6vectorI7PlayersNS2_IS4_EEEEEENS_16reverse_iteratorIPS6_EEEEED1B7v160006Ev, symObjAddr: 0x5F50, symBinAddr: 0x100008E10, symSize: 0x2C }
  - { offsetInCU: 0x18417, offset: 0x1FBCD, size: 0x8, addend: 0x0, symName: __ZNSt3__128__exception_guard_exceptionsINS_29_AllocatorDestroyRangeReverseINS_9allocatorINS_6vectorI7PlayersNS2_IS4_EEEEEENS_16reverse_iteratorIPS6_EEEEEC1B7v160006ESB_, symObjAddr: 0x5F7C, symBinAddr: 0x100008E3C, symSize: 0x34 }
  - { offsetInCU: 0x1844E, offset: 0x1FC04, size: 0x8, addend: 0x0, symName: __ZNSt3__128__exception_guard_exceptionsINS_29_AllocatorDestroyRangeReverseINS_9allocatorINS_6vectorI7PlayersNS2_IS4_EEEEEENS_16reverse_iteratorIPS6_EEEEEC2B7v160006ESB_, symObjAddr: 0x5FB0, symBinAddr: 0x100008E70, symSize: 0x30 }
  - { offsetInCU: 0x18485, offset: 0x1FC3B, size: 0x8, addend: 0x0, symName: __ZNSt3__129_AllocatorDestroyRangeReverseINS_9allocatorINS_6vectorI7PlayersNS1_IS3_EEEEEENS_16reverse_iteratorIPS5_EEEC2B7v160006ERS6_RS9_SC_, symObjAddr: 0x5FE0, symBinAddr: 0x100008EA0, symSize: 0x38 }
  - { offsetInCU: 0x184DA, offset: 0x1FC90, size: 0x8, addend: 0x0, symName: __ZNSt3__19allocatorINS_6vectorI7PlayersNS0_IS2_EEEEE9constructB7v160006IS4_JS4_EEEvPT_DpOT0_, symObjAddr: 0x6018, symBinAddr: 0x100008ED8, symSize: 0x30 }
  - { offsetInCU: 0x1852F, offset: 0x1FCE5, size: 0x8, addend: 0x0, symName: __ZNSt3__16vectorI7PlayersNS_9allocatorIS1_EEEC1B7v160006EOS4_, symObjAddr: 0x6048, symBinAddr: 0x100008F08, symSize: 0x34 }
  - { offsetInCU: 0x18569, offset: 0x1FD1F, size: 0x8, addend: 0x0, symName: __ZNSt3__16vectorI7PlayersNS_9allocatorIS1_EEEC2B7v160006EOS4_, symObjAddr: 0x607C, symBinAddr: 0x100008F3C, symSize: 0xDC }
  - { offsetInCU: 0x185A8, offset: 0x1FD5E, size: 0x8, addend: 0x0, symName: __ZNSt3__119__to_address_helperINS_16reverse_iteratorIPNS_6vectorI7PlayersNS_9allocatorIS3_EEEEEEvE6__callB7v160006ERKS8_, symObjAddr: 0x616C, symBinAddr: 0x10000902C, symSize: 0x38 }
  - { offsetInCU: 0x185CA, offset: 0x1FD80, size: 0x8, addend: 0x0, symName: __ZNKSt3__116reverse_iteratorIPNS_6vectorI7PlayersNS_9allocatorIS2_EEEEEptB7v160006Ev, symObjAddr: 0x61A4, symBinAddr: 0x100009064, symSize: 0x24 }
  - { offsetInCU: 0x185EF, offset: 0x1FDA5, size: 0x8, addend: 0x0, symName: __ZNSt3__128__exception_guard_exceptionsINS_29_AllocatorDestroyRangeReverseINS_9allocatorINS_6vectorI7PlayersNS2_IS4_EEEEEENS_16reverse_iteratorIPS6_EEEEED2B7v160006Ev, symObjAddr: 0x61C8, symBinAddr: 0x100009088, symSize: 0x50 }
  - { offsetInCU: 0x18617, offset: 0x1FDCD, size: 0x8, addend: 0x0, symName: __ZNKSt3__129_AllocatorDestroyRangeReverseINS_9allocatorINS_6vectorI7PlayersNS1_IS3_EEEEEENS_16reverse_iteratorIPS5_EEEclB7v160006Ev, symObjAddr: 0x6218, symBinAddr: 0x1000090D8, symSize: 0xB4 }
  - { offsetInCU: 0x1863D, offset: 0x1FDF3, size: 0x8, addend: 0x0, symName: __ZNSt3__116reverse_iteratorINS0_IPNS_6vectorI7PlayersNS_9allocatorIS2_EEEEEEEC1B7v160006ES7_, symObjAddr: 0x633C, symBinAddr: 0x1000091FC, symSize: 0x3C }
  - { offsetInCU: 0x18673, offset: 0x1FE29, size: 0x8, addend: 0x0, symName: __ZNSt3__116reverse_iteratorINS0_IPNS_6vectorI7PlayersNS_9allocatorIS2_EEEEEEEppB7v160006Ev, symObjAddr: 0x63FC, symBinAddr: 0x1000092BC, symSize: 0x30 }
  - { offsetInCU: 0x18698, offset: 0x1FE4E, size: 0x8, addend: 0x0, symName: __ZNKSt3__116reverse_iteratorINS0_IPNS_6vectorI7PlayersNS_9allocatorIS2_EEEEEEE4baseB7v160006Ev, symObjAddr: 0x642C, symBinAddr: 0x1000092EC, symSize: 0x24 }
  - { offsetInCU: 0x186C2, offset: 0x1FE78, size: 0x8, addend: 0x0, symName: __ZNSt3__119__to_address_helperINS_16reverse_iteratorINS1_IPNS_6vectorI7PlayersNS_9allocatorIS3_EEEEEEEEvE6__callB7v160006ERKS9_, symObjAddr: 0x6450, symBinAddr: 0x100009310, symSize: 0x38 }
  - { offsetInCU: 0x186E4, offset: 0x1FE9A, size: 0x8, addend: 0x0, symName: __ZNKSt3__116reverse_iteratorINS0_IPNS_6vectorI7PlayersNS_9allocatorIS2_EEEEEEEptB7v160006Ev, symObjAddr: 0x6488, symBinAddr: 0x100009348, symSize: 0x24 }
  - { offsetInCU: 0x18709, offset: 0x1FEBF, size: 0x8, addend: 0x0, symName: __ZNKSt3__116reverse_iteratorINS0_IPNS_6vectorI7PlayersNS_9allocatorIS2_EEEEEEEdeB7v160006Ev, symObjAddr: 0x64AC, symBinAddr: 0x10000936C, symSize: 0x34 }
  - { offsetInCU: 0x1873C, offset: 0x1FEF2, size: 0x8, addend: 0x0, symName: __ZNSt3__116reverse_iteratorIPNS_6vectorI7PlayersNS_9allocatorIS2_EEEEEmmB7v160006Ev, symObjAddr: 0x64E0, symBinAddr: 0x1000093A0, symSize: 0x20 }
  - { offsetInCU: 0x18761, offset: 0x1FF17, size: 0x8, addend: 0x0, symName: __ZNSt3__116reverse_iteratorINS0_IPNS_6vectorI7PlayersNS_9allocatorIS2_EEEEEEEC2B7v160006ES7_, symObjAddr: 0x6500, symBinAddr: 0x1000093C0, symSize: 0x2C }
  - { offsetInCU: 0x18797, offset: 0x1FF4D, size: 0x8, addend: 0x0, symName: __ZNSt3__116reverse_iteratorIPNS_6vectorI7PlayersNS_9allocatorIS2_EEEEEC2B7v160006ES6_, symObjAddr: 0x652C, symBinAddr: 0x1000093EC, symSize: 0x28 }
  - { offsetInCU: 0x187CD, offset: 0x1FF83, size: 0x8, addend: 0x0, symName: __ZNSt3__114__split_bufferINS_6vectorI7PlayersNS_9allocatorIS2_EEEERNS3_IS5_EEED2Ev, symObjAddr: 0x6554, symBinAddr: 0x100009414, symSize: 0x8C }
  - { offsetInCU: 0x187F8, offset: 0x1FFAE, size: 0x8, addend: 0x0, symName: __ZNSt3__114__split_bufferINS_6vectorI7PlayersNS_9allocatorIS2_EEEERNS3_IS5_EEE5clearB7v160006Ev, symObjAddr: 0x65E0, symBinAddr: 0x1000094A0, symSize: 0x28 }
  - { offsetInCU: 0x1881D, offset: 0x1FFD3, size: 0x8, addend: 0x0, symName: __ZNKSt3__114__split_bufferINS_6vectorI7PlayersNS_9allocatorIS2_EEEERNS3_IS5_EEE8capacityB7v160006Ev, symObjAddr: 0x6608, symBinAddr: 0x1000094C8, symSize: 0x40 }
  - { offsetInCU: 0x18842, offset: 0x1FFF8, size: 0x8, addend: 0x0, symName: __ZNSt3__114__split_bufferINS_6vectorI7PlayersNS_9allocatorIS2_EEEERNS3_IS5_EEE17__destruct_at_endB7v160006EPS5_, symObjAddr: 0x6648, symBinAddr: 0x100009508, symSize: 0x2C }
  - { offsetInCU: 0x18875, offset: 0x2002B, size: 0x8, addend: 0x0, symName: __ZNSt3__114__split_bufferINS_6vectorI7PlayersNS_9allocatorIS2_EEEERNS3_IS5_EEE17__destruct_at_endB7v160006EPS5_NS_17integral_constantIbLb0EEE, symObjAddr: 0x6674, symBinAddr: 0x100009534, symSize: 0x80 }
  - { offsetInCU: 0x188B4, offset: 0x2006A, size: 0x8, addend: 0x0, symName: __ZNKSt3__114__split_bufferINS_6vectorI7PlayersNS_9allocatorIS2_EEEERNS3_IS5_EEE9__end_capB7v160006Ev, symObjAddr: 0x66F4, symBinAddr: 0x1000095B4, symSize: 0x28 }
  - { offsetInCU: 0x188D9, offset: 0x2008F, size: 0x8, addend: 0x0, symName: __ZNKSt3__117__compressed_pairIPNS_6vectorI7PlayersNS_9allocatorIS2_EEEERNS3_IS5_EEE5firstB7v160006Ev, symObjAddr: 0x671C, symBinAddr: 0x1000095DC, symSize: 0x24 }
  - { offsetInCU: 0x188FE, offset: 0x200B4, size: 0x8, addend: 0x0, symName: __ZNKSt3__112basic_stringIcNS_11char_traitsIcEENS_9allocatorIcEEE15__get_long_sizeB7v160006Ev, symObjAddr: 0x6740, symBinAddr: 0x100009600, symSize: 0x28 }
  - { offsetInCU: 0x18923, offset: 0x200D9, size: 0x8, addend: 0x0, symName: __ZNKSt3__112basic_stringIcNS_11char_traitsIcEENS_9allocatorIcEEE16__get_short_sizeB7v160006Ev, symObjAddr: 0x6768, symBinAddr: 0x100009628, symSize: 0x34 }
  - { offsetInCU: 0x18948, offset: 0x200FE, size: 0x8, addend: 0x0, symName: __ZNKSt3__112basic_stringIcNS_11char_traitsIcEENS_9allocatorIcEEE4dataB7v160006Ev, symObjAddr: 0x679C, symBinAddr: 0x10000965C, symSize: 0x28 }
  - { offsetInCU: 0x1896D, offset: 0x20123, size: 0x8, addend: 0x0, symName: __ZNKSt3__112basic_stringIcNS_11char_traitsIcEENS_9allocatorIcEEE13__get_pointerB7v160006Ev, symObjAddr: 0x67D8, symBinAddr: 0x100009698, symSize: 0x54 }
  - { offsetInCU: 0x18992, offset: 0x20148, size: 0x8, addend: 0x0, symName: __ZNKSt3__112basic_stringIcNS_11char_traitsIcEENS_9allocatorIcEEE18__get_long_pointerB7v160006Ev, symObjAddr: 0x682C, symBinAddr: 0x1000096EC, symSize: 0x28 }
  - { offsetInCU: 0x189B7, offset: 0x2016D, size: 0x8, addend: 0x0, symName: __ZNKSt3__112basic_stringIcNS_11char_traitsIcEENS_9allocatorIcEEE19__get_short_pointerB7v160006Ev, symObjAddr: 0x6854, symBinAddr: 0x100009714, symSize: 0x28 }
  - { offsetInCU: 0x189DC, offset: 0x20192, size: 0x8, addend: 0x0, symName: __ZNSt3__114pointer_traitsIPKcE10pointer_toB7v160006ERS1_, symObjAddr: 0x687C, symBinAddr: 0x10000973C, symSize: 0x14 }
  - { offsetInCU: 0x189FF, offset: 0x201B5, size: 0x8, addend: 0x0, symName: __ZNSt3__16vectorI7PlayersNS_9allocatorIS1_EEE22__construct_one_at_endB7v160006IJRKS1_EEEvDpOT_, symObjAddr: 0x6890, symBinAddr: 0x100009750, symSize: 0x90 }
  - { offsetInCU: 0x18A4D, offset: 0x20203, size: 0x8, addend: 0x0, symName: __ZNSt3__16vectorI7PlayersNS_9allocatorIS1_EEE21__push_back_slow_pathIRKS1_EEvOT_, symObjAddr: 0x6920, symBinAddr: 0x1000097E0, symSize: 0xD8 }
  - { offsetInCU: 0x18AAA, offset: 0x20260, size: 0x8, addend: 0x0, symName: __ZNSt3__116allocator_traitsINS_9allocatorI7PlayersEEE9constructB7v160006IS2_JRKS2_EvEEvRS3_PT_DpOT0_, symObjAddr: 0x69F8, symBinAddr: 0x1000098B8, symSize: 0x34 }
  - { offsetInCU: 0x18B00, offset: 0x202B6, size: 0x8, addend: 0x0, symName: __ZNSt3__19allocatorI7PlayersE9constructB7v160006IS1_JRKS1_EEEvPT_DpOT0_, symObjAddr: 0x6A2C, symBinAddr: 0x1000098EC, symSize: 0x30 }
  - { offsetInCU: 0x18B55, offset: 0x2030B, size: 0x8, addend: 0x0, symName: __ZNKSt3__16vectorI7PlayersNS_9allocatorIS1_EEE11__recommendB7v160006Em, symObjAddr: 0x6A5C, symBinAddr: 0x10000991C, symSize: 0xB4 }
  - { offsetInCU: 0x18BA9, offset: 0x2035F, size: 0x8, addend: 0x0, symName: __ZNSt3__114__split_bufferI7PlayersRNS_9allocatorIS1_EEEC1EmmS4_, symObjAddr: 0x6B10, symBinAddr: 0x1000099D0, symSize: 0x44 }
  - { offsetInCU: 0x18BFE, offset: 0x203B4, size: 0x8, addend: 0x0, symName: __ZNSt3__114__split_bufferI7PlayersRNS_9allocatorIS1_EEED1Ev, symObjAddr: 0x6C6C, symBinAddr: 0x100009B2C, symSize: 0x2C }
  - { offsetInCU: 0x18C29, offset: 0x203DF, size: 0x8, addend: 0x0, symName: __ZNSt3__114__split_bufferI7PlayersRNS_9allocatorIS1_EEEC2EmmS4_, symObjAddr: 0x6C98, symBinAddr: 0x100009B58, symSize: 0xE0 }
  - { offsetInCU: 0x18C9C, offset: 0x20452, size: 0x8, addend: 0x0, symName: __ZNSt3__117__compressed_pairIP7PlayersRNS_9allocatorIS1_EEEC1B7v160006IDnS5_EEOT_OT0_, symObjAddr: 0x6D78, symBinAddr: 0x100009C38, symSize: 0x3C }
  - { offsetInCU: 0x18CF2, offset: 0x204A8, size: 0x8, addend: 0x0, symName: __ZNSt3__114__split_bufferI7PlayersRNS_9allocatorIS1_EEE7__allocB7v160006Ev, symObjAddr: 0x6DB4, symBinAddr: 0x100009C74, symSize: 0x28 }
  - { offsetInCU: 0x18D17, offset: 0x204CD, size: 0x8, addend: 0x0, symName: __ZNSt3__114__split_bufferI7PlayersRNS_9allocatorIS1_EEE9__end_capB7v160006Ev, symObjAddr: 0x6DDC, symBinAddr: 0x100009C9C, symSize: 0x28 }
  - { offsetInCU: 0x18D3C, offset: 0x204F2, size: 0x8, addend: 0x0, symName: __ZNSt3__117__compressed_pairIP7PlayersRNS_9allocatorIS1_EEEC2B7v160006IDnS5_EEOT_OT0_, symObjAddr: 0x6E04, symBinAddr: 0x100009CC4, symSize: 0x48 }
  - { offsetInCU: 0x18D92, offset: 0x20548, size: 0x8, addend: 0x0, symName: __ZNSt3__122__compressed_pair_elemIRNS_9allocatorI7PlayersEELi1ELb0EEC2B7v160006IS4_vEEOT_, symObjAddr: 0x6E4C, symBinAddr: 0x100009D0C, symSize: 0x20 }
  - { offsetInCU: 0x18DD2, offset: 0x20588, size: 0x8, addend: 0x0, symName: __ZNSt3__117__compressed_pairIP7PlayersRNS_9allocatorIS1_EEE6secondB7v160006Ev, symObjAddr: 0x6E6C, symBinAddr: 0x100009D2C, symSize: 0x28 }
  - { offsetInCU: 0x18DF7, offset: 0x205AD, size: 0x8, addend: 0x0, symName: __ZNSt3__122__compressed_pair_elemIRNS_9allocatorI7PlayersEELi1ELb0EE5__getB7v160006Ev, symObjAddr: 0x6E94, symBinAddr: 0x100009D54, symSize: 0x18 }
  - { offsetInCU: 0x18E1C, offset: 0x205D2, size: 0x8, addend: 0x0, symName: __ZNSt3__117__compressed_pairIP7PlayersRNS_9allocatorIS1_EEE5firstB7v160006Ev, symObjAddr: 0x6EAC, symBinAddr: 0x100009D6C, symSize: 0x24 }
  - { offsetInCU: 0x18E41, offset: 0x205F7, size: 0x8, addend: 0x0, symName: __ZNSt3__129_AllocatorDestroyRangeReverseINS_9allocatorI7PlayersEENS_16reverse_iteratorIPS2_EEEC1B7v160006ERS3_RS6_S9_, symObjAddr: 0x7084, symBinAddr: 0x100009F44, symSize: 0x44 }
  - { offsetInCU: 0x18E96, offset: 0x2064C, size: 0x8, addend: 0x0, symName: __ZNSt3__128__exception_guard_exceptionsINS_29_AllocatorDestroyRangeReverseINS_9allocatorI7PlayersEENS_16reverse_iteratorIPS3_EEEEE10__completeB7v160006Ev, symObjAddr: 0x70C8, symBinAddr: 0x100009F88, symSize: 0x1C }
  - { offsetInCU: 0x18EBB, offset: 0x20671, size: 0x8, addend: 0x0, symName: __ZNSt3__128__exception_guard_exceptionsINS_29_AllocatorDestroyRangeReverseINS_9allocatorI7PlayersEENS_16reverse_iteratorIPS3_EEEEED1B7v160006Ev, symObjAddr: 0x70E4, symBinAddr: 0x100009FA4, symSize: 0x2C }
  - { offsetInCU: 0x18EE3, offset: 0x20699, size: 0x8, addend: 0x0, symName: __ZNSt3__128__exception_guard_exceptionsINS_29_AllocatorDestroyRangeReverseINS_9allocatorI7PlayersEENS_16reverse_iteratorIPS3_EEEEEC1B7v160006ES8_, symObjAddr: 0x7110, symBinAddr: 0x100009FD0, symSize: 0x34 }
  - { offsetInCU: 0x18F1A, offset: 0x206D0, size: 0x8, addend: 0x0, symName: __ZNSt3__128__exception_guard_exceptionsINS_29_AllocatorDestroyRangeReverseINS_9allocatorI7PlayersEENS_16reverse_iteratorIPS3_EEEEEC2B7v160006ES8_, symObjAddr: 0x7144, symBinAddr: 0x10000A004, symSize: 0x30 }
  - { offsetInCU: 0x18F51, offset: 0x20707, size: 0x8, addend: 0x0, symName: __ZNSt3__129_AllocatorDestroyRangeReverseINS_9allocatorI7PlayersEENS_16reverse_iteratorIPS2_EEEC2B7v160006ERS3_RS6_S9_, symObjAddr: 0x7174, symBinAddr: 0x10000A034, symSize: 0x38 }
  - { offsetInCU: 0x18FA6, offset: 0x2075C, size: 0x8, addend: 0x0, symName: __ZNSt3__128__exception_guard_exceptionsINS_29_AllocatorDestroyRangeReverseINS_9allocatorI7PlayersEENS_16reverse_iteratorIPS3_EEEEED2B7v160006Ev, symObjAddr: 0x71AC, symBinAddr: 0x10000A06C, symSize: 0x50 }
  - { offsetInCU: 0x18FCE, offset: 0x20784, size: 0x8, addend: 0x0, symName: __ZNKSt3__129_AllocatorDestroyRangeReverseINS_9allocatorI7PlayersEENS_16reverse_iteratorIPS2_EEEclB7v160006Ev, symObjAddr: 0x71FC, symBinAddr: 0x10000A0BC, symSize: 0xB4 }
  - { offsetInCU: 0x18FF4, offset: 0x207AA, size: 0x8, addend: 0x0, symName: __ZNSt3__116reverse_iteratorINS0_IP7PlayersEEEC1B7v160006ES3_, symObjAddr: 0x7320, symBinAddr: 0x10000A1E0, symSize: 0x3C }
  - { offsetInCU: 0x1902A, offset: 0x207E0, size: 0x8, addend: 0x0, symName: __ZNSt3__116reverse_iteratorINS0_IP7PlayersEEEppB7v160006Ev, symObjAddr: 0x73E0, symBinAddr: 0x10000A2A0, symSize: 0x30 }
  - { offsetInCU: 0x1904F, offset: 0x20805, size: 0x8, addend: 0x0, symName: __ZNKSt3__116reverse_iteratorINS0_IP7PlayersEEE4baseB7v160006Ev, symObjAddr: 0x7410, symBinAddr: 0x10000A2D0, symSize: 0x24 }
  - { offsetInCU: 0x19079, offset: 0x2082F, size: 0x8, addend: 0x0, symName: __ZNSt3__119__to_address_helperINS_16reverse_iteratorINS1_IP7PlayersEEEEvE6__callB7v160006ERKS5_, symObjAddr: 0x7434, symBinAddr: 0x10000A2F4, symSize: 0x38 }
  - { offsetInCU: 0x1909B, offset: 0x20851, size: 0x8, addend: 0x0, symName: __ZNKSt3__116reverse_iteratorINS0_IP7PlayersEEEptB7v160006Ev, symObjAddr: 0x746C, symBinAddr: 0x10000A32C, symSize: 0x24 }
  - { offsetInCU: 0x190C0, offset: 0x20876, size: 0x8, addend: 0x0, symName: __ZNKSt3__116reverse_iteratorINS0_IP7PlayersEEEdeB7v160006Ev, symObjAddr: 0x7490, symBinAddr: 0x10000A350, symSize: 0x34 }
  - { offsetInCU: 0x190F3, offset: 0x208A9, size: 0x8, addend: 0x0, symName: __ZNSt3__116reverse_iteratorIP7PlayersEmmB7v160006Ev, symObjAddr: 0x74C4, symBinAddr: 0x10000A384, symSize: 0x20 }
  - { offsetInCU: 0x19118, offset: 0x208CE, size: 0x8, addend: 0x0, symName: __ZNSt3__116reverse_iteratorINS0_IP7PlayersEEEC2B7v160006ES3_, symObjAddr: 0x74E4, symBinAddr: 0x10000A3A4, symSize: 0x2C }
  - { offsetInCU: 0x1914E, offset: 0x20904, size: 0x8, addend: 0x0, symName: __ZNSt3__114__split_bufferI7PlayersRNS_9allocatorIS1_EEED2Ev, symObjAddr: 0x7510, symBinAddr: 0x10000A3D0, symSize: 0x8C }
  - { offsetInCU: 0x19179, offset: 0x2092F, size: 0x8, addend: 0x0, symName: __ZNSt3__114__split_bufferI7PlayersRNS_9allocatorIS1_EEE5clearB7v160006Ev, symObjAddr: 0x759C, symBinAddr: 0x10000A45C, symSize: 0x28 }
  - { offsetInCU: 0x1919E, offset: 0x20954, size: 0x8, addend: 0x0, symName: __ZNKSt3__114__split_bufferI7PlayersRNS_9allocatorIS1_EEE8capacityB7v160006Ev, symObjAddr: 0x75C4, symBinAddr: 0x10000A484, symSize: 0x40 }
  - { offsetInCU: 0x191C3, offset: 0x20979, size: 0x8, addend: 0x0, symName: __ZNSt3__114__split_bufferI7PlayersRNS_9allocatorIS1_EEE17__destruct_at_endB7v160006EPS1_, symObjAddr: 0x7604, symBinAddr: 0x10000A4C4, symSize: 0x2C }
  - { offsetInCU: 0x191F6, offset: 0x209AC, size: 0x8, addend: 0x0, symName: __ZNSt3__114__split_bufferI7PlayersRNS_9allocatorIS1_EEE17__destruct_at_endB7v160006EPS1_NS_17integral_constantIbLb0EEE, symObjAddr: 0x7630, symBinAddr: 0x10000A4F0, symSize: 0x80 }
  - { offsetInCU: 0x19235, offset: 0x209EB, size: 0x8, addend: 0x0, symName: __ZNKSt3__114__split_bufferI7PlayersRNS_9allocatorIS1_EEE9__end_capB7v160006Ev, symObjAddr: 0x76B0, symBinAddr: 0x10000A570, symSize: 0x28 }
  - { offsetInCU: 0x1925A, offset: 0x20A10, size: 0x8, addend: 0x0, symName: __ZNKSt3__117__compressed_pairIP7PlayersRNS_9allocatorIS1_EEE5firstB7v160006Ev, symObjAddr: 0x76D8, symBinAddr: 0x10000A598, symSize: 0x24 }
  - { offsetInCU: 0x1927F, offset: 0x20A35, size: 0x8, addend: 0x0, symName: __ZNKSt3__112basic_stringIcNS_11char_traitsIcEENS_9allocatorIcEEE7compareINS_17basic_string_viewIcS2_EEEENS_9enable_ifIXsr33__can_be_converted_to_string_viewIcS2_T_EE5valueEiE4typeERKSA_, symObjAddr: 0x76FC, symBinAddr: 0x10000A5BC, symSize: 0x12C }
  - { offsetInCU: 0x192FB, offset: 0x20AB1, size: 0x8, addend: 0x0, symName: __ZNKSt3__112basic_stringIcNS_11char_traitsIcEENS_9allocatorIcEEEcvNS_17basic_string_viewIcS2_EEB7v160006Ev, symObjAddr: 0x7828, symBinAddr: 0x10000A6E8, symSize: 0x50 }
  - { offsetInCU: 0x19320, offset: 0x20AD6, size: 0x8, addend: 0x0, symName: __ZNKSt3__117basic_string_viewIcNS_11char_traitsIcEEE4sizeB7v160006Ev, symObjAddr: 0x7878, symBinAddr: 0x10000A738, symSize: 0x18 }
  - { offsetInCU: 0x19345, offset: 0x20AFB, size: 0x8, addend: 0x0, symName: __ZNSt3__111char_traitsIcE7compareEPKcS3_m, symObjAddr: 0x7890, symBinAddr: 0x10000A750, symSize: 0x6C }
  - { offsetInCU: 0x19383, offset: 0x20B39, size: 0x8, addend: 0x0, symName: __ZNKSt3__117basic_string_viewIcNS_11char_traitsIcEEE4dataB7v160006Ev, symObjAddr: 0x78FC, symBinAddr: 0x10000A7BC, symSize: 0x18 }
  - { offsetInCU: 0x193A8, offset: 0x20B5E, size: 0x8, addend: 0x0, symName: __ZNSt3__117basic_string_viewIcNS_11char_traitsIcEEEC1B7v160006EPKcm, symObjAddr: 0x7948, symBinAddr: 0x10000A808, symSize: 0x3C }
  - { offsetInCU: 0x193EE, offset: 0x20BA4, size: 0x8, addend: 0x0, symName: __ZNSt3__117basic_string_viewIcNS_11char_traitsIcEEEC2B7v160006EPKcm, symObjAddr: 0x7984, symBinAddr: 0x10000A844, symSize: 0x50 }
  - { offsetInCU: 0x3E02, offset: 0x24B58, size: 0x8, addend: 0x0, symName: __ZNSt3__1lsB7v160006IcNS_11char_traitsIcEEEERNS_13basic_ostreamIT_T0_EES7_RKNS_8__iom_t5E, symObjAddr: 0x6D8, symBinAddr: 0x10000AF40, symSize: 0x40 }
  - { offsetInCU: 0x3E4E, offset: 0x24BA4, size: 0x8, addend: 0x0, symName: __ZNSt3__112setprecisionB7v160006Ei, symObjAddr: 0x718, symBinAddr: 0x10000AF80, symSize: 0x2C }
  - { offsetInCU: 0x6023, offset: 0x26D79, size: 0x8, addend: 0x0, symName: __ZN7PlayersC2Ev, symObjAddr: 0x0, symBinAddr: 0x10000A894, symSize: 0xDC }
  - { offsetInCU: 0x604E, offset: 0x26DA4, size: 0x8, addend: 0x0, symName: __ZNSt3__112basic_stringIcNS_11char_traitsIcEENS_9allocatorIcEEEaSB7v160006EPKc, symObjAddr: 0x108, symBinAddr: 0x10000A970, symSize: 0x2C }
  - { offsetInCU: 0x6082, offset: 0x26DD8, size: 0x8, addend: 0x0, symName: __ZN7PlayersC1Ev, symObjAddr: 0x134, symBinAddr: 0x10000A99C, symSize: 0x2C }
  - { offsetInCU: 0x60AD, offset: 0x26E03, size: 0x8, addend: 0x0, symName: __ZN7PlayersC2ENSt3__112basic_stringIcNS0_11char_traitsIcEENS0_9allocatorIcEEEES6_S6_iiii, symObjAddr: 0x160, symBinAddr: 0x10000A9C8, symSize: 0x108 }
  - { offsetInCU: 0x613D, offset: 0x26E93, size: 0x8, addend: 0x0, symName: __ZN7PlayersC1ENSt3__112basic_stringIcNS0_11char_traitsIcEENS0_9allocatorIcEEEES6_S6_iiii, symObjAddr: 0x268, symBinAddr: 0x10000AAD0, symSize: 0x64 }
  - { offsetInCU: 0x61CD, offset: 0x26F23, size: 0x8, addend: 0x0, symName: __ZN7PlayersD2Ev, symObjAddr: 0x2CC, symBinAddr: 0x10000AB34, symSize: 0x44 }
  - { offsetInCU: 0x61F8, offset: 0x26F4E, size: 0x8, addend: 0x0, symName: __ZN7PlayersD1Ev, symObjAddr: 0x310, symBinAddr: 0x10000AB78, symSize: 0x2C }
  - { offsetInCU: 0x6223, offset: 0x26F79, size: 0x8, addend: 0x0, symName: __ZN7Players7setNameENSt3__112basic_stringIcNS0_11char_traitsIcEENS0_9allocatorIcEEEE, symObjAddr: 0x33C, symBinAddr: 0x10000ABA4, symSize: 0x2C }
  - { offsetInCU: 0x6259, offset: 0x26FAF, size: 0x8, addend: 0x0, symName: __ZN7Players11setTeamNameENSt3__112basic_stringIcNS0_11char_traitsIcEENS0_9allocatorIcEEEE, symObjAddr: 0x368, symBinAddr: 0x10000ABD0, symSize: 0x30 }
  - { offsetInCU: 0x628F, offset: 0x26FE5, size: 0x8, addend: 0x0, symName: __ZN7Players7setLaneENSt3__112basic_stringIcNS0_11char_traitsIcEENS0_9allocatorIcEEEE, symObjAddr: 0x398, symBinAddr: 0x10000AC00, symSize: 0x30 }
  - { offsetInCU: 0x62C5, offset: 0x2701B, size: 0x8, addend: 0x0, symName: __ZN7Players8setKillsEi, symObjAddr: 0x3C8, symBinAddr: 0x10000AC30, symSize: 0x20 }
  - { offsetInCU: 0x62FA, offset: 0x27050, size: 0x8, addend: 0x0, symName: __ZN7Players9setDeathsEi, symObjAddr: 0x3E8, symBinAddr: 0x10000AC50, symSize: 0x20 }
  - { offsetInCU: 0x632F, offset: 0x27085, size: 0x8, addend: 0x0, symName: __ZN7Players10setAssistsEi, symObjAddr: 0x408, symBinAddr: 0x10000AC70, symSize: 0x20 }
  - { offsetInCU: 0x6364, offset: 0x270BA, size: 0x8, addend: 0x0, symName: __ZN7Players5setCSEi, symObjAddr: 0x428, symBinAddr: 0x10000AC90, symSize: 0x20 }
  - { offsetInCU: 0x6399, offset: 0x270EF, size: 0x8, addend: 0x0, symName: __ZN7Players9setPointsEd, symObjAddr: 0x448, symBinAddr: 0x10000ACB0, symSize: 0x20 }
  - { offsetInCU: 0x63CE, offset: 0x27124, size: 0x8, addend: 0x0, symName: __ZNK7Players7getNameEv, symObjAddr: 0x468, symBinAddr: 0x10000ACD0, symSize: 0x38 }
  - { offsetInCU: 0x63F5, offset: 0x2714B, size: 0x8, addend: 0x0, symName: __ZNK7Players11getTeamNameEv, symObjAddr: 0x4A0, symBinAddr: 0x10000AD08, symSize: 0x3C }
  - { offsetInCU: 0x641C, offset: 0x27172, size: 0x8, addend: 0x0, symName: __ZNK7Players7getLaneEv, symObjAddr: 0x4DC, symBinAddr: 0x10000AD44, symSize: 0x3C }
  - { offsetInCU: 0x6443, offset: 0x27199, size: 0x8, addend: 0x0, symName: __ZN7Players5printEv, symObjAddr: 0x518, symBinAddr: 0x10000AD80, symSize: 0x1C0 }
  - { offsetInCU: 0x646A, offset: 0x271C0, size: 0x8, addend: 0x0, symName: __ZNSt3__18__iom_t5C1B7v160006Ei, symObjAddr: 0x9BC, symBinAddr: 0x10000AFAC, symSize: 0x34 }
  - { offsetInCU: 0x64A0, offset: 0x271F6, size: 0x8, addend: 0x0, symName: __ZNSt3__18__iom_t5C2B7v160006Ei, symObjAddr: 0x9F0, symBinAddr: 0x10000AFE0, symSize: 0x20 }
  - { offsetInCU: 0x64D6, offset: 0x2722C, size: 0x8, addend: 0x0, symName: __ZNSt3__18ios_base9precisionB7v160006El, symObjAddr: 0xCC8, symBinAddr: 0x10000B000, symSize: 0x2C }
...
