---
triple:          'arm64-apple-darwin'
binary-path:     '/Users/nick/Projects/fantasyLCK/players'
relocations:
  - { offsetInCU: 0xFC02, offset: 0xFC02, size: 0x8, addend: 0x0, symName: __ZNSt3__124__put_character_sequenceB7v160006IcNS_11char_traitsIcEEEERNS_13basic_ostreamIT_T0_EES7_PKS4_m, symObjAddr: 0x6060, symBinAddr: 0x100006CE8, symSize: 0x1EC }
  - { offsetInCU: 0x10293, offset: 0x10293, size: 0x8, addend: 0x0, symName: __ZNSt3__17advanceB7v160006IP7PlayersmmvEEvRT_T0_, symObjAddr: 0x9264, symBinAddr: 0x100009EEC, symSize: 0x50 }
  - { offsetInCU: 0x102FE, offset: 0x102FE, size: 0x8, addend: 0x0, symName: __ZNSt3__17advanceB7v160006IPNS_6vectorI7PlayersNS_9allocatorIS2_EEEEmmvEEvRT_T0_, symObjAddr: 0x9C74, symBinAddr: 0x10000A8FC, symSize: 0x50 }
  - { offsetInCU: 0x11977, offset: 0x11977, size: 0x8, addend: 0x0, symName: __ZNSt3__1lsB7v160006INS_11char_traitsIcEEEERNS_13basic_ostreamIcT_EES6_PKc, symObjAddr: 0x6E4, symBinAddr: 0x10000136C, symSize: 0x48 }
  - { offsetInCU: 0x119BD, offset: 0x119BD, size: 0x8, addend: 0x0, symName: __ZNSt3__14endlB7v160006IcNS_11char_traitsIcEEEERNS_13basic_ostreamIT_T0_EES7_, symObjAddr: 0x758, symBinAddr: 0x1000013E0, symSize: 0x58 }
  - { offsetInCU: 0x119FD, offset: 0x119FD, size: 0x8, addend: 0x0, symName: __ZNSt3__17getlineB7v160006IcNS_11char_traitsIcEENS_9allocatorIcEEEERNS_13basic_istreamIT_T0_EES9_RNS_12basic_stringIS6_S7_T1_EES6_, symObjAddr: 0x7DC, symBinAddr: 0x100001464, symSize: 0x238 }
  - { offsetInCU: 0x11AE2, offset: 0x11AE2, size: 0x8, addend: 0x0, symName: __ZNSt3__1lsB7v160006IcNS_11char_traitsIcEENS_9allocatorIcEEEERNS_13basic_ostreamIT_T0_EES9_RKNS_12basic_stringIS6_S7_T1_EE, symObjAddr: 0x153C, symBinAddr: 0x1000021C4, symSize: 0x4C }
  - { offsetInCU: 0x11B3A, offset: 0x11B3A, size: 0x8, addend: 0x0, symName: __ZNSt3__15flushB7v160006IcNS_11char_traitsIcEEEERNS_13basic_ostreamIT_T0_EES7_, symObjAddr: 0x1588, symBinAddr: 0x100002210, symSize: 0x28 }
  - { offsetInCU: 0x11B7A, offset: 0x11B7A, size: 0x8, addend: 0x0, symName: __ZNSt3__1lsB7v160006IcNS_11char_traitsIcEEEERNS_13basic_ostreamIT_T0_EES7_RKNS_8__iom_t5E, symObjAddr: 0x18D0, symBinAddr: 0x100002558, symSize: 0x40 }
  - { offsetInCU: 0x11BC6, offset: 0x11BC6, size: 0x8, addend: 0x0, symName: __ZNSt3__15fixedB7v160006ERNS_8ios_baseE, symObjAddr: 0x1950, symBinAddr: 0x1000025D8, symSize: 0x30 }
  - { offsetInCU: 0x11BF4, offset: 0x11BF4, size: 0x8, addend: 0x0, symName: __ZNSt3__112setprecisionB7v160006Ei, symObjAddr: 0x1980, symBinAddr: 0x100002608, symSize: 0x2C }
  - { offsetInCU: 0x11C20, offset: 0x11C20, size: 0x8, addend: 0x0, symName: __ZNSt3__14leftB7v160006ERNS_8ios_baseE, symObjAddr: 0x19AC, symBinAddr: 0x100002634, symSize: 0x30 }
  - { offsetInCU: 0x11C4E, offset: 0x11C4E, size: 0x8, addend: 0x0, symName: __ZNSt3__1lsB7v160006IcNS_11char_traitsIcEEEERNS_13basic_ostreamIT_T0_EES7_RKNS_8__iom_t6E, symObjAddr: 0x19DC, symBinAddr: 0x100002664, symSize: 0x40 }
  - { offsetInCU: 0x11C9D, offset: 0x11C9D, size: 0x8, addend: 0x0, symName: __ZNSt3__15rightB7v160006ERNS_8ios_baseE, symObjAddr: 0x1A1C, symBinAddr: 0x1000026A4, symSize: 0x30 }
  - { offsetInCU: 0x11CCB, offset: 0x11CCB, size: 0x8, addend: 0x0, symName: __ZNSt3__14setwB7v160006Ei, symObjAddr: 0x1A4C, symBinAddr: 0x1000026D4, symSize: 0x2C }
  - { offsetInCU: 0x11CF9, offset: 0x11CF9, size: 0x8, addend: 0x0, symName: __ZNSt3__122__make_exception_guardB7v160006INS_6vectorI7PlayersNS_9allocatorIS2_EEE16__destroy_vectorEEENS_28__exception_guard_exceptionsIT_EES8_, symObjAddr: 0x2998, symBinAddr: 0x100003620, symSize: 0x40 }
  - { offsetInCU: 0x11D2E, offset: 0x11D2E, size: 0x8, addend: 0x0, symName: __ZNSt3__119__debug_db_insert_cB7v160006INS_6vectorI7PlayersNS_9allocatorIS2_EEEEEEvPT_, symObjAddr: 0x2A0C, symBinAddr: 0x100003694, symSize: 0x10 }
  - { offsetInCU: 0x11D5F, offset: 0x11D5F, size: 0x8, addend: 0x0, symName: __ZNSt3__119__allocate_at_leastB7v160006INS_9allocatorI7PlayersEEEENS_19__allocation_resultINS_16allocator_traitsIT_E7pointerEEERS6_m, symObjAddr: 0x2D48, symBinAddr: 0x1000039D0, symSize: 0x40 }
  - { offsetInCU: 0x11DA2, offset: 0x11DA2, size: 0x8, addend: 0x0, symName: __ZNSt3__13minB7v160006ImEERKT_S3_S3_, symObjAddr: 0x2EA0, symBinAddr: 0x100003B28, symSize: 0x2C }
  - { offsetInCU: 0x11FCF, offset: 0x11FCF, size: 0x8, addend: 0x0, symName: __ZNSt3__13minB7v160006ImNS_6__lessImmEEEERKT_S5_S5_T0_, symObjAddr: 0x2F10, symBinAddr: 0x100003B98, symSize: 0x54 }
  - { offsetInCU: 0x12064, offset: 0x12064, size: 0x8, addend: 0x0, symName: __ZNSt3__120__throw_length_errorB7v160006EPKc, symObjAddr: 0x2FB8, symBinAddr: 0x100003C40, symSize: 0x64 }
  - { offsetInCU: 0x1208C, offset: 0x1208C, size: 0x8, addend: 0x0, symName: __ZNSt3__117__libcpp_allocateB7v160006Emm, symObjAddr: 0x312C, symBinAddr: 0x100003DB4, symSize: 0x60 }
  - { offsetInCU: 0x120E6, offset: 0x120E6, size: 0x8, addend: 0x0, symName: __ZNSt3__124__is_overaligned_for_newB7v160006Em, symObjAddr: 0x318C, symBinAddr: 0x100003E14, symSize: 0x20 }
  - { offsetInCU: 0x12114, offset: 0x12114, size: 0x8, addend: 0x0, symName: __ZNSt3__121__libcpp_operator_newB7v160006IJmSt11align_val_tEEEPvDpT_, symObjAddr: 0x31AC, symBinAddr: 0x100003E34, symSize: 0x2C }
  - { offsetInCU: 0x12161, offset: 0x12161, size: 0x8, addend: 0x0, symName: __ZNSt3__121__libcpp_operator_newB7v160006IJmEEEPvDpT_, symObjAddr: 0x31D8, symBinAddr: 0x100003E60, symSize: 0x24 }
  - { offsetInCU: 0x1219A, offset: 0x1219A, size: 0x8, addend: 0x0, symName: __ZNSt3__112__to_addressB7v160006I7PlayersEEPT_S3_, symObjAddr: 0x32F4, symBinAddr: 0x100003F7C, symSize: 0x14 }
  - { offsetInCU: 0x121CF, offset: 0x121CF, size: 0x8, addend: 0x0, symName: __ZNSt3__130__uninitialized_allocator_copyB7v160006INS_9allocatorI7PlayersEEPS2_S4_S4_EET2_RT_T0_T1_S5_, symObjAddr: 0x33A4, symBinAddr: 0x10000402C, symSize: 0xF4 }
  - { offsetInCU: 0x1226D, offset: 0x1226D, size: 0x8, addend: 0x0, symName: __ZNSt3__122__make_exception_guardB7v160006INS_29_AllocatorDestroyRangeReverseINS_9allocatorI7PlayersEEPS3_EEEENS_28__exception_guard_exceptionsIT_EES8_, symObjAddr: 0x3510, symBinAddr: 0x100004198, symSize: 0x4C }
  - { offsetInCU: 0x122A3, offset: 0x122A3, size: 0x8, addend: 0x0, symName: __ZNSt3__119__allocator_destroyB7v160006INS_9allocatorI7PlayersEENS_16reverse_iteratorIPS2_EES6_EEvRT_T0_T1_, symObjAddr: 0x3890, symBinAddr: 0x100004518, symSize: 0x70 }
  - { offsetInCU: 0x12306, offset: 0x12306, size: 0x8, addend: 0x0, symName: __ZNSt3__1neB7v160006IP7PlayersS2_EEbRKNS_16reverse_iteratorIT_EERKNS3_IT0_EE, symObjAddr: 0x3934, symBinAddr: 0x1000045BC, symSize: 0x48 }
  - { offsetInCU: 0x12352, offset: 0x12352, size: 0x8, addend: 0x0, symName: __ZNSt3__112__to_addressB7v160006INS_16reverse_iteratorIP7PlayersEEvEENS_5decayIDTclsr19__to_address_helperIT_EE6__callclsr3stdE7declvalIRKS6_EEEEE4typeES8_, symObjAddr: 0x39A8, symBinAddr: 0x100004630, symSize: 0x24 }
  - { offsetInCU: 0x123B1, offset: 0x123B1, size: 0x8, addend: 0x0, symName: __ZNSt3__118__debug_db_erase_cB7v160006INS_6vectorI7PlayersNS_9allocatorIS2_EEEEEEvPT_, symObjAddr: 0x3CB8, symBinAddr: 0x100004940, symSize: 0x10 }
  - { offsetInCU: 0x123E2, offset: 0x123E2, size: 0x8, addend: 0x0, symName: __ZNSt3__119__libcpp_deallocateB7v160006EPvmm, symObjAddr: 0x3DF4, symBinAddr: 0x100004A7C, symSize: 0x60 }
  - { offsetInCU: 0x12447, offset: 0x12447, size: 0x8, addend: 0x0, symName: __ZNSt3__127__do_deallocate_handle_sizeB7v160006IJSt11align_val_tEEEvPvmDpT_, symObjAddr: 0x3E54, symBinAddr: 0x100004ADC, symSize: 0x30 }
  - { offsetInCU: 0x1249A, offset: 0x1249A, size: 0x8, addend: 0x0, symName: __ZNSt3__127__do_deallocate_handle_sizeB7v160006IJEEEvPvmDpT_, symObjAddr: 0x3E84, symBinAddr: 0x100004B0C, symSize: 0x28 }
  - { offsetInCU: 0x124D8, offset: 0x124D8, size: 0x8, addend: 0x0, symName: __ZNSt3__124__libcpp_operator_deleteB7v160006IJPvSt11align_val_tEEEvDpT_, symObjAddr: 0x3EAC, symBinAddr: 0x100004B34, symSize: 0x2C }
  - { offsetInCU: 0x12521, offset: 0x12521, size: 0x8, addend: 0x0, symName: __ZNSt3__124__libcpp_operator_deleteB7v160006IJPvEEEvDpT_, symObjAddr: 0x3ED8, symBinAddr: 0x100004B60, symSize: 0x24 }
  - { offsetInCU: 0x12556, offset: 0x12556, size: 0x8, addend: 0x0, symName: __ZNSt3__122__make_exception_guardB7v160006INS_6vectorINS1_I7PlayersNS_9allocatorIS2_EEEENS3_IS5_EEE16__destroy_vectorEEENS_28__exception_guard_exceptionsIT_EESA_, symObjAddr: 0x4084, symBinAddr: 0x100004D0C, symSize: 0x40 }
  - { offsetInCU: 0x1258B, offset: 0x1258B, size: 0x8, addend: 0x0, symName: __ZNSt3__119__debug_db_insert_cB7v160006INS_6vectorINS1_I7PlayersNS_9allocatorIS2_EEEENS3_IS5_EEEEEEvPT_, symObjAddr: 0x40F8, symBinAddr: 0x100004D80, symSize: 0x10 }
  - { offsetInCU: 0x125BC, offset: 0x125BC, size: 0x8, addend: 0x0, symName: __ZNSt3__119__allocate_at_leastB7v160006INS_9allocatorINS_6vectorI7PlayersNS1_IS3_EEEEEEEENS_19__allocation_resultINS_16allocator_traitsIT_E7pointerEEERS9_m, symObjAddr: 0x4434, symBinAddr: 0x1000050BC, symSize: 0x40 }
  - { offsetInCU: 0x125FF, offset: 0x125FF, size: 0x8, addend: 0x0, symName: __ZNSt3__112__to_addressB7v160006INS_6vectorI7PlayersNS_9allocatorIS2_EEEEEEPT_S7_, symObjAddr: 0x471C, symBinAddr: 0x1000053A4, symSize: 0x14 }
  - { offsetInCU: 0x12634, offset: 0x12634, size: 0x8, addend: 0x0, symName: __ZNSt3__130__uninitialized_allocator_copyB7v160006INS_9allocatorINS_6vectorI7PlayersNS1_IS3_EEEEEEPS5_S7_S7_EET2_RT_T0_T1_S8_, symObjAddr: 0x47CC, symBinAddr: 0x100005454, symSize: 0xF4 }
  - { offsetInCU: 0x126D2, offset: 0x126D2, size: 0x8, addend: 0x0, symName: __ZNSt3__122__make_exception_guardB7v160006INS_29_AllocatorDestroyRangeReverseINS_9allocatorINS_6vectorI7PlayersNS2_IS4_EEEEEEPS6_EEEENS_28__exception_guard_exceptionsIT_EESB_, symObjAddr: 0x4938, symBinAddr: 0x1000055C0, symSize: 0x4C }
  - { offsetInCU: 0x12708, offset: 0x12708, size: 0x8, addend: 0x0, symName: __ZNSt3__119__allocator_destroyB7v160006INS_9allocatorINS_6vectorI7PlayersNS1_IS3_EEEEEENS_16reverse_iteratorIPS5_EES9_EEvRT_T0_T1_, symObjAddr: 0x4BC8, symBinAddr: 0x100005850, symSize: 0x70 }
  - { offsetInCU: 0x1276B, offset: 0x1276B, size: 0x8, addend: 0x0, symName: __ZNSt3__1neB7v160006IPNS_6vectorI7PlayersNS_9allocatorIS2_EEEES6_EEbRKNS_16reverse_iteratorIT_EERKNS7_IT0_EE, symObjAddr: 0x4C6C, symBinAddr: 0x1000058F4, symSize: 0x48 }
  - { offsetInCU: 0x127B7, offset: 0x127B7, size: 0x8, addend: 0x0, symName: __ZNSt3__112__to_addressB7v160006INS_16reverse_iteratorIPNS_6vectorI7PlayersNS_9allocatorIS3_EEEEEEvEENS_5decayIDTclsr19__to_address_helperIT_EE6__callclsr3stdE7declvalIRKSA_EEEEE4typeESC_, symObjAddr: 0x4CE0, symBinAddr: 0x100005968, symSize: 0x24 }
  - { offsetInCU: 0x12816, offset: 0x12816, size: 0x8, addend: 0x0, symName: __ZNSt3__118__debug_db_erase_cB7v160006INS_6vectorINS1_I7PlayersNS_9allocatorIS2_EEEENS3_IS5_EEEEEEvPT_, symObjAddr: 0x4FF0, symBinAddr: 0x100005C78, symSize: 0x10 }
  - { offsetInCU: 0x12847, offset: 0x12847, size: 0x8, addend: 0x0, symName: __ZNSt3__119__debug_db_insert_cB7v160006INS_12basic_stringIcNS_11char_traitsIcEENS_9allocatorIcEEEEEEvPT_, symObjAddr: 0x53B8, symBinAddr: 0x100006040, symSize: 0x10 }
  - { offsetInCU: 0x128AB, offset: 0x128AB, size: 0x8, addend: 0x0, symName: __ZNSt3__119__debug_db_insert_cB7v160006INS_6vectorI10ContestantNS_9allocatorIS2_EEEEEEvPT_, symObjAddr: 0x592C, symBinAddr: 0x1000065B4, symSize: 0x10 }
  - { offsetInCU: 0x128DC, offset: 0x128DC, size: 0x8, addend: 0x0, symName: __ZNSt3__118__debug_db_erase_cB7v160006INS_6vectorI10ContestantNS_9allocatorIS2_EEEEEEvPT_, symObjAddr: 0x5C0C, symBinAddr: 0x100006894, symSize: 0x10 }
  - { offsetInCU: 0x1290D, offset: 0x1290D, size: 0x8, addend: 0x0, symName: __ZNSt3__112__to_addressB7v160006I10ContestantEEPT_S3_, symObjAddr: 0x5D28, symBinAddr: 0x1000069B0, symSize: 0x14 }
  - { offsetInCU: 0x12942, offset: 0x12942, size: 0x8, addend: 0x0, symName: __ZNSt3__116__pad_and_outputB7v160006IcNS_11char_traitsIcEEEENS_19ostreambuf_iteratorIT_T0_EES6_PKS4_S8_S8_RNS_8ios_baseES4_, symObjAddr: 0x629C, symBinAddr: 0x100006F24, symSize: 0x240 }
  - { offsetInCU: 0x12A11, offset: 0x12A11, size: 0x8, addend: 0x0, symName: __ZNSt3__112__to_addressB7v160006IcEEPT_S2_, symObjAddr: 0x6714, symBinAddr: 0x10000739C, symSize: 0x14 }
  - { offsetInCU: 0x12A46, offset: 0x12A46, size: 0x8, addend: 0x0, symName: __ZNSt3__19use_facetB7v160006INS_5ctypeIcEEEERKT_RKNS_6localeE, symObjAddr: 0x68B8, symBinAddr: 0x100007540, symSize: 0x2C }
  - { offsetInCU: 0x12F15, offset: 0x12F15, size: 0x8, addend: 0x0, symName: __ZNSt3__118__constexpr_strlenB7v160006EPKc, symObjAddr: 0x6950, symBinAddr: 0x1000075D8, symSize: 0x24 }
  - { offsetInCU: 0x12F41, offset: 0x12F41, size: 0x8, addend: 0x0, symName: __ZNSt3__125__debug_db_invalidate_allB7v160006INS_12basic_stringIcNS_11char_traitsIcEENS_9allocatorIcEEEEEEvPT_, symObjAddr: 0x6C04, symBinAddr: 0x10000788C, symSize: 0x10 }
  - { offsetInCU: 0x1315E, offset: 0x1315E, size: 0x8, addend: 0x0, symName: __ZNSt3__13maxB7v160006ImEERKT_S3_S3_, symObjAddr: 0x750C, symBinAddr: 0x100008194, symSize: 0x2C }
  - { offsetInCU: 0x131A1, offset: 0x131A1, size: 0x8, addend: 0x0, symName: __ZNSt3__13maxB7v160006ImNS_6__lessImmEEEERKT_S5_S5_T0_, symObjAddr: 0x75DC, symBinAddr: 0x100008264, symSize: 0x54 }
  - { offsetInCU: 0x131FB, offset: 0x131FB, size: 0x8, addend: 0x0, symName: __ZNSt3__119__allocate_at_leastB7v160006INS_9allocatorI10ContestantEEEENS_19__allocation_resultINS_16allocator_traitsIT_E7pointerEEERS6_m, symObjAddr: 0x774C, symBinAddr: 0x1000083D4, symSize: 0x40 }
  - { offsetInCU: 0x1323E, offset: 0x1323E, size: 0x8, addend: 0x0, symName: __ZNSt3__142__uninitialized_allocator_move_if_noexceptB7v160006INS_9allocatorI10ContestantEENS_16reverse_iteratorIPS2_EES6_S6_EET2_RT_T0_T1_S7_, symObjAddr: 0x7904, symBinAddr: 0x10000858C, symSize: 0x12C }
  - { offsetInCU: 0x132DE, offset: 0x132DE, size: 0x8, addend: 0x0, symName: __ZNSt3__14swapB7v160006IP10ContestantEENS_9enable_ifIXaasr21is_move_constructibleIT_EE5valuesr18is_move_assignableIS4_EE5valueEvE4typeERS4_S7_, symObjAddr: 0x7A7C, symBinAddr: 0x100008704, symSize: 0x3C }
  - { offsetInCU: 0x1332F, offset: 0x1332F, size: 0x8, addend: 0x0, symName: __ZNSt3__125__debug_db_invalidate_allB7v160006INS_6vectorI10ContestantNS_9allocatorIS2_EEEEEEvPT_, symObjAddr: 0x7B80, symBinAddr: 0x100008808, symSize: 0x10 }
  - { offsetInCU: 0x13360, offset: 0x13360, size: 0x8, addend: 0x0, symName: __ZNSt3__122__make_exception_guardB7v160006INS_29_AllocatorDestroyRangeReverseINS_9allocatorI10ContestantEENS_16reverse_iteratorIPS3_EEEEEENS_28__exception_guard_exceptionsIT_EESA_, symObjAddr: 0x7B90, symBinAddr: 0x100008818, symSize: 0x4C }
  - { offsetInCU: 0x13396, offset: 0x13396, size: 0x8, addend: 0x0, symName: __ZNSt3__1neB7v160006IP10ContestantS2_EEbRKNS_16reverse_iteratorIT_EERKNS3_IT0_EE, symObjAddr: 0x7C20, symBinAddr: 0x1000088A8, symSize: 0x48 }
  - { offsetInCU: 0x133E2, offset: 0x133E2, size: 0x8, addend: 0x0, symName: __ZNSt3__112__to_addressB7v160006INS_16reverse_iteratorIP10ContestantEEvEENS_5decayIDTclsr19__to_address_helperIT_EE6__callclsr3stdE7declvalIRKS6_EEEEE4typeES8_, symObjAddr: 0x7C68, symBinAddr: 0x1000088F0, symSize: 0x24 }
  - { offsetInCU: 0x13441, offset: 0x13441, size: 0x8, addend: 0x0, symName: __ZNSt3__119__allocator_destroyB7v160006INS_9allocatorI10ContestantEENS_16reverse_iteratorINS4_IPS2_EEEES7_EEvRT_T0_T1_, symObjAddr: 0x7F18, symBinAddr: 0x100008BA0, symSize: 0x70 }
  - { offsetInCU: 0x134A6, offset: 0x134A6, size: 0x8, addend: 0x0, symName: __ZNSt3__1neB7v160006INS_16reverse_iteratorIP10ContestantEES4_EEbRKNS1_IT_EERKNS1_IT0_EE, symObjAddr: 0x7FC4, symBinAddr: 0x100008C4C, symSize: 0x60 }
  - { offsetInCU: 0x134F2, offset: 0x134F2, size: 0x8, addend: 0x0, symName: __ZNSt3__112__to_addressB7v160006INS_16reverse_iteratorINS1_IP10ContestantEEEEvEENS_5decayIDTclsr19__to_address_helperIT_EE6__callclsr3stdE7declvalIRKS7_EEEEE4typeES9_, symObjAddr: 0x8024, symBinAddr: 0x100008CAC, symSize: 0x24 }
  - { offsetInCU: 0x13575, offset: 0x13575, size: 0x8, addend: 0x0, symName: __ZNSt3__118__constexpr_memcmpB7v160006IcEEiPKT_S3_m, symObjAddr: 0x85CC, symBinAddr: 0x100009254, symSize: 0x34 }
  - { offsetInCU: 0x135C6, offset: 0x135C6, size: 0x8, addend: 0x0, symName: __ZNSt3__112__to_addressB7v160006IKcEEPT_S3_, symObjAddr: 0x8600, symBinAddr: 0x100009288, symSize: 0x14 }
  - { offsetInCU: 0x1362E, offset: 0x1362E, size: 0x8, addend: 0x0, symName: __ZNSt3__1miB7v160006IPK10ContestantS3_EEDTmicldtfp_4baseEcldtfp0_4baseEERKNS_11__wrap_iterIT_EERKNS5_IT0_EE, symObjAddr: 0x87EC, symBinAddr: 0x100009474, symSize: 0x48 }
  - { offsetInCU: 0x1367A, offset: 0x1367A, size: 0x8, addend: 0x0, symName: __ZNSt3__14moveB7v160006IP10ContestantS2_EET0_T_S4_S3_, symObjAddr: 0x88C0, symBinAddr: 0x100009548, symSize: 0x40 }
  - { offsetInCU: 0x136D4, offset: 0x136D4, size: 0x8, addend: 0x0, symName: __ZNSt3__16__moveB7v160006INS_17_ClassicAlgPolicyEP10ContestantS3_S3_EENS_4pairIT0_T2_EES5_T1_S6_, symObjAddr: 0x8AC0, symBinAddr: 0x100009748, symSize: 0x44 }
  - { offsetInCU: 0x13740, offset: 0x13740, size: 0x8, addend: 0x0, symName: __ZNSt3__123__dispatch_copy_or_moveB7v160006INS_17_ClassicAlgPolicyENS_11__move_loopIS1_EENS_14__move_trivialEP10ContestantS6_S6_EENS_4pairIT2_T4_EES8_T3_S9_, symObjAddr: 0x8B04, symBinAddr: 0x10000978C, symSize: 0x44 }
  - { offsetInCU: 0x137BE, offset: 0x137BE, size: 0x8, addend: 0x0, symName: __ZNSt3__121__unwrap_and_dispatchB7v160006INS_10__overloadINS_11__move_loopINS_17_ClassicAlgPolicyEEENS_14__move_trivialEEEP10ContestantS8_S8_Li0EEENS_4pairIT0_T2_EESA_T1_SB_, symObjAddr: 0x8B48, symBinAddr: 0x1000097D0, symSize: 0xB4 }
  - { offsetInCU: 0x1384C, offset: 0x1384C, size: 0x8, addend: 0x0, symName: __ZNSt3__114__unwrap_rangeB7v160006IP10ContestantS2_EENS_4pairIT0_S4_EET_S6_, symObjAddr: 0x8BFC, symBinAddr: 0x100009884, symSize: 0x60 }
  - { offsetInCU: 0x139C7, offset: 0x139C7, size: 0x8, addend: 0x0, symName: __ZNSt3__113__unwrap_iterB7v160006IP10ContestantNS_18__unwrap_iter_implIS2_Lb1EEELi0EEEDTclsrT0_8__unwrapclsr3stdE7declvalIT_EEEES6_, symObjAddr: 0x8CEC, symBinAddr: 0x100009974, symSize: 0x24 }
  - { offsetInCU: 0x13A0B, offset: 0x13A0B, size: 0x8, addend: 0x0, symName: __ZNSt3__19make_pairB7v160006IP10ContestantS2_EENS_4pairINS_18__unwrap_ref_decayIT_E4typeENS4_IT0_E4typeEEEOS5_OS8_, symObjAddr: 0x8D10, symBinAddr: 0x100009998, symSize: 0x38 }
  - { offsetInCU: 0x13A5A, offset: 0x13A5A, size: 0x8, addend: 0x0, symName: __ZNSt3__114__rewrap_rangeB7v160006IP10ContestantS2_EET_S3_T0_, symObjAddr: 0x8D48, symBinAddr: 0x1000099D0, symSize: 0x2C }
  - { offsetInCU: 0x13AA6, offset: 0x13AA6, size: 0x8, addend: 0x0, symName: __ZNSt3__113__rewrap_iterB7v160006IP10ContestantS2_NS_18__unwrap_iter_implIS2_Lb1EEEEET_S5_T0_, symObjAddr: 0x8D74, symBinAddr: 0x1000099FC, symSize: 0x3C }
  - { offsetInCU: 0x13B65, offset: 0x13B65, size: 0x8, addend: 0x0, symName: __ZNSt3__18distanceB7v160006IP7PlayersEENS_15iterator_traitsIT_E15difference_typeES4_S4_, symObjAddr: 0x9238, symBinAddr: 0x100009EC0, symSize: 0x2C }
  - { offsetInCU: 0x13BA8, offset: 0x13BA8, size: 0x8, addend: 0x0, symName: __ZNSt3__14copyB7v160006IP7PlayersS2_EET0_T_S4_S3_, symObjAddr: 0x92B4, symBinAddr: 0x100009F3C, symSize: 0x40 }
  - { offsetInCU: 0x13C02, offset: 0x13C02, size: 0x8, addend: 0x0, symName: __ZNSt3__125__debug_db_invalidate_allB7v160006INS_6vectorI7PlayersNS_9allocatorIS2_EEEEEEvPT_, symObjAddr: 0x9494, symBinAddr: 0x10000A11C, symSize: 0x10 }
  - { offsetInCU: 0x13C33, offset: 0x13C33, size: 0x8, addend: 0x0, symName: __ZNSt3__110__distanceB7v160006IP7PlayersEENS_15iterator_traitsIT_E15difference_typeES4_S4_NS_26random_access_iterator_tagE, symObjAddr: 0x94A4, symBinAddr: 0x10000A12C, symSize: 0x28 }
  - { offsetInCU: 0x13C80, offset: 0x13C80, size: 0x8, addend: 0x0, symName: __ZNSt3__121__convert_to_integralB7v160006Em, symObjAddr: 0x94CC, symBinAddr: 0x10000A154, symSize: 0x14 }
  - { offsetInCU: 0x13CAC, offset: 0x13CAC, size: 0x8, addend: 0x0, symName: __ZNSt3__19__advanceB7v160006IP7PlayersEEvRT_NS_15iterator_traitsIS3_E15difference_typeENS_26random_access_iterator_tagE, symObjAddr: 0x94E0, symBinAddr: 0x10000A168, symSize: 0x30 }
  - { offsetInCU: 0x13CF5, offset: 0x13CF5, size: 0x8, addend: 0x0, symName: __ZNSt3__16__copyB7v160006INS_17_ClassicAlgPolicyEP7PlayersS3_S3_EENS_4pairIT0_T2_EES5_T1_S6_, symObjAddr: 0x9510, symBinAddr: 0x10000A198, symSize: 0x44 }
  - { offsetInCU: 0x13D61, offset: 0x13D61, size: 0x8, addend: 0x0, symName: __ZNSt3__123__dispatch_copy_or_moveB7v160006INS_17_ClassicAlgPolicyENS_11__copy_loopIS1_EENS_14__copy_trivialEP7PlayersS6_S6_EENS_4pairIT2_T4_EES8_T3_S9_, symObjAddr: 0x9554, symBinAddr: 0x10000A1DC, symSize: 0x44 }
  - { offsetInCU: 0x13DDF, offset: 0x13DDF, size: 0x8, addend: 0x0, symName: __ZNSt3__121__unwrap_and_dispatchB7v160006INS_10__overloadINS_11__copy_loopINS_17_ClassicAlgPolicyEEENS_14__copy_trivialEEEP7PlayersS8_S8_Li0EEENS_4pairIT0_T2_EESA_T1_SB_, symObjAddr: 0x9598, symBinAddr: 0x10000A220, symSize: 0xB4 }
  - { offsetInCU: 0x13E6D, offset: 0x13E6D, size: 0x8, addend: 0x0, symName: __ZNSt3__114__unwrap_rangeB7v160006IP7PlayersS2_EENS_4pairIT0_S4_EET_S6_, symObjAddr: 0x964C, symBinAddr: 0x10000A2D4, symSize: 0x60 }
  - { offsetInCU: 0x1401E, offset: 0x1401E, size: 0x8, addend: 0x0, symName: __ZNSt3__113__unwrap_iterB7v160006IP7PlayersNS_18__unwrap_iter_implIS2_Lb1EEELi0EEEDTclsrT0_8__unwrapclsr3stdE7declvalIT_EEEES6_, symObjAddr: 0x9734, symBinAddr: 0x10000A3BC, symSize: 0x24 }
  - { offsetInCU: 0x14062, offset: 0x14062, size: 0x8, addend: 0x0, symName: __ZNSt3__19make_pairB7v160006IP7PlayersS2_EENS_4pairINS_18__unwrap_ref_decayIT_E4typeENS4_IT0_E4typeEEEOS5_OS8_, symObjAddr: 0x9758, symBinAddr: 0x10000A3E0, symSize: 0x38 }
  - { offsetInCU: 0x140B1, offset: 0x140B1, size: 0x8, addend: 0x0, symName: __ZNSt3__114__rewrap_rangeB7v160006IP7PlayersS2_EET_S3_T0_, symObjAddr: 0x9790, symBinAddr: 0x10000A418, symSize: 0x2C }
  - { offsetInCU: 0x140FD, offset: 0x140FD, size: 0x8, addend: 0x0, symName: __ZNSt3__113__rewrap_iterB7v160006IP7PlayersS2_NS_18__unwrap_iter_implIS2_Lb1EEEEET_S5_T0_, symObjAddr: 0x97BC, symBinAddr: 0x10000A444, symSize: 0x3C }
  - { offsetInCU: 0x141A5, offset: 0x141A5, size: 0x8, addend: 0x0, symName: __ZNSt3__18distanceB7v160006IPNS_6vectorI7PlayersNS_9allocatorIS2_EEEEEENS_15iterator_traitsIT_E15difference_typeES8_S8_, symObjAddr: 0x9C48, symBinAddr: 0x10000A8D0, symSize: 0x2C }
  - { offsetInCU: 0x141E8, offset: 0x141E8, size: 0x8, addend: 0x0, symName: __ZNSt3__14copyB7v160006IPNS_6vectorI7PlayersNS_9allocatorIS2_EEEES6_EET0_T_S8_S7_, symObjAddr: 0x9CC4, symBinAddr: 0x10000A94C, symSize: 0x40 }
  - { offsetInCU: 0x14242, offset: 0x14242, size: 0x8, addend: 0x0, symName: __ZNSt3__125__debug_db_invalidate_allB7v160006INS_6vectorINS1_I7PlayersNS_9allocatorIS2_EEEENS3_IS5_EEEEEEvPT_, symObjAddr: 0x9EA4, symBinAddr: 0x10000AB2C, symSize: 0x10 }
  - { offsetInCU: 0x14273, offset: 0x14273, size: 0x8, addend: 0x0, symName: __ZNSt3__110__distanceB7v160006IPNS_6vectorI7PlayersNS_9allocatorIS2_EEEEEENS_15iterator_traitsIT_E15difference_typeES8_S8_NS_26random_access_iterator_tagE, symObjAddr: 0x9EB4, symBinAddr: 0x10000AB3C, symSize: 0x28 }
  - { offsetInCU: 0x142C0, offset: 0x142C0, size: 0x8, addend: 0x0, symName: __ZNSt3__19__advanceB7v160006IPNS_6vectorI7PlayersNS_9allocatorIS2_EEEEEEvRT_NS_15iterator_traitsIS7_E15difference_typeENS_26random_access_iterator_tagE, symObjAddr: 0x9EDC, symBinAddr: 0x10000AB64, symSize: 0x30 }
  - { offsetInCU: 0x14309, offset: 0x14309, size: 0x8, addend: 0x0, symName: __ZNSt3__16__copyB7v160006INS_17_ClassicAlgPolicyEPNS_6vectorI7PlayersNS_9allocatorIS3_EEEES7_S7_EENS_4pairIT0_T2_EES9_T1_SA_, symObjAddr: 0x9F0C, symBinAddr: 0x10000AB94, symSize: 0x44 }
  - { offsetInCU: 0x14375, offset: 0x14375, size: 0x8, addend: 0x0, symName: __ZNSt3__123__dispatch_copy_or_moveB7v160006INS_17_ClassicAlgPolicyENS_11__copy_loopIS1_EENS_14__copy_trivialEPNS_6vectorI7PlayersNS_9allocatorIS6_EEEESA_SA_EENS_4pairIT2_T4_EESC_T3_SD_, symObjAddr: 0x9F50, symBinAddr: 0x10000ABD8, symSize: 0x44 }
  - { offsetInCU: 0x143F3, offset: 0x143F3, size: 0x8, addend: 0x0, symName: __ZNSt3__121__unwrap_and_dispatchB7v160006INS_10__overloadINS_11__copy_loopINS_17_ClassicAlgPolicyEEENS_14__copy_trivialEEEPNS_6vectorI7PlayersNS_9allocatorIS8_EEEESC_SC_Li0EEENS_4pairIT0_T2_EESE_T1_SF_, symObjAddr: 0x9F94, symBinAddr: 0x10000AC1C, symSize: 0xB4 }
  - { offsetInCU: 0x14481, offset: 0x14481, size: 0x8, addend: 0x0, symName: __ZNSt3__114__unwrap_rangeB7v160006IPNS_6vectorI7PlayersNS_9allocatorIS2_EEEES6_EENS_4pairIT0_S8_EET_SA_, symObjAddr: 0xA048, symBinAddr: 0x10000ACD0, symSize: 0x60 }
  - { offsetInCU: 0x145A1, offset: 0x145A1, size: 0x8, addend: 0x0, symName: __ZNSt3__113__unwrap_iterB7v160006IPNS_6vectorI7PlayersNS_9allocatorIS2_EEEENS_18__unwrap_iter_implIS6_Lb1EEELi0EEEDTclsrT0_8__unwrapclsr3stdE7declvalIT_EEEESA_, symObjAddr: 0xA130, symBinAddr: 0x10000ADB8, symSize: 0x24 }
  - { offsetInCU: 0x145E5, offset: 0x145E5, size: 0x8, addend: 0x0, symName: __ZNSt3__19make_pairB7v160006IPNS_6vectorI7PlayersNS_9allocatorIS2_EEEES6_EENS_4pairINS_18__unwrap_ref_decayIT_E4typeENS8_IT0_E4typeEEEOS9_OSC_, symObjAddr: 0xA154, symBinAddr: 0x10000ADDC, symSize: 0x38 }
  - { offsetInCU: 0x14634, offset: 0x14634, size: 0x8, addend: 0x0, symName: __ZNSt3__114__rewrap_rangeB7v160006IPNS_6vectorI7PlayersNS_9allocatorIS2_EEEES6_EET_S7_T0_, symObjAddr: 0xA18C, symBinAddr: 0x10000AE14, symSize: 0x2C }
  - { offsetInCU: 0x14680, offset: 0x14680, size: 0x8, addend: 0x0, symName: __ZNSt3__113__rewrap_iterB7v160006IPNS_6vectorI7PlayersNS_9allocatorIS2_EEEES6_NS_18__unwrap_iter_implIS6_Lb1EEEEET_S9_T0_, symObjAddr: 0xA1B8, symBinAddr: 0x10000AE40, symSize: 0x3C }
  - { offsetInCU: 0x14D6C, offset: 0x14D6C, size: 0x8, addend: 0x0, symName: __ZSt28__throw_bad_array_new_lengthB7v160006v, symObjAddr: 0x30F8, symBinAddr: 0x100003D80, symSize: 0x34 }
  - { offsetInCU: 0x1643E, offset: 0x1643E, size: 0x8, addend: 0x0, symName: __ZNSt3__16vectorI10ContestantNS_9allocatorIS1_EEE26__swap_out_circular_bufferERNS_14__split_bufferIS1_RS3_EE, symObjAddr: 0x734C, symBinAddr: 0x100007FD4, symSize: 0x118 }
  - { offsetInCU: 0x185D3, offset: 0x185D3, size: 0x8, addend: 0x0, symName: __ZN14ContestantListC2Ev, symObjAddr: 0x0, symBinAddr: 0x100000C88, symSize: 0x38 }
  - { offsetInCU: 0x185FF, offset: 0x185FF, size: 0x8, addend: 0x0, symName: __ZNSt3__16vectorI10ContestantNS_9allocatorIS1_EEEC1B7v160006Ev, symObjAddr: 0x38, symBinAddr: 0x100000CC0, symSize: 0x2C }
  - { offsetInCU: 0x18629, offset: 0x18629, size: 0x8, addend: 0x0, symName: __ZN14ContestantListC1Ev, symObjAddr: 0x64, symBinAddr: 0x100000CEC, symSize: 0x2C }
  - { offsetInCU: 0x18655, offset: 0x18655, size: 0x8, addend: 0x0, symName: __ZN14ContestantListC2ENSt3__112basic_stringIcNS0_11char_traitsIcEENS0_9allocatorIcEEEE10PlayerList, symObjAddr: 0x90, symBinAddr: 0x100000D18, symSize: 0x544 }
  - { offsetInCU: 0x187DD, offset: 0x187DD, size: 0x8, addend: 0x0, symName: __ZNSt3__114basic_ifstreamIcNS_11char_traitsIcEEEC1Ev, symObjAddr: 0x5D4, symBinAddr: 0x10000125C, symSize: 0xE8 }
  - { offsetInCU: 0x18809, offset: 0x18809, size: 0x8, addend: 0x0, symName: __ZNKSt3__19basic_iosIcNS_11char_traitsIcEEEntB7v160006Ev, symObjAddr: 0x6BC, symBinAddr: 0x100001344, symSize: 0x28 }
  - { offsetInCU: 0x1882F, offset: 0x1882F, size: 0x8, addend: 0x0, symName: __ZNSt3__113basic_ostreamIcNS_11char_traitsIcEEElsB7v160006EPFRS3_S4_E, symObjAddr: 0x72C, symBinAddr: 0x1000013B4, symSize: 0x2C }
  - { offsetInCU: 0x18863, offset: 0x18863, size: 0x8, addend: 0x0, symName: __ZNSt3__112basic_stringIcNS_11char_traitsIcEENS_9allocatorIcEEEC1B7v160006Ev, symObjAddr: 0x7B0, symBinAddr: 0x100001438, symSize: 0x2C }
  - { offsetInCU: 0x1888D, offset: 0x1888D, size: 0x8, addend: 0x0, symName: __ZNKSt3__19basic_iosIcNS_11char_traitsIcEEE3eofB7v160006Ev, symObjAddr: 0xA14, symBinAddr: 0x10000169C, symSize: 0x28 }
  - { offsetInCU: 0x188B3, offset: 0x188B3, size: 0x8, addend: 0x0, symName: __ZNSt3__16vectorI10ContestantNS_9allocatorIS1_EEE9push_backB7v160006ERKS1_, symObjAddr: 0xA3C, symBinAddr: 0x1000016C4, symSize: 0x6C }
  - { offsetInCU: 0x188EA, offset: 0x188EA, size: 0x8, addend: 0x0, symName: __ZNSt3__114basic_ifstreamIcNS_11char_traitsIcEEE5closeEv, symObjAddr: 0xAA8, symBinAddr: 0x100001730, symSize: 0x58 }
  - { offsetInCU: 0x18917, offset: 0x18917, size: 0x8, addend: 0x0, symName: __ZNSt3__114basic_ifstreamIcNS_11char_traitsIcEEED1Ev, symObjAddr: 0xB00, symBinAddr: 0x100001788, symSize: 0x40 }
  - { offsetInCU: 0x18944, offset: 0x18944, size: 0x8, addend: 0x0, symName: __ZNSt3__16vectorI10ContestantNS_9allocatorIS1_EEED1B7v160006Ev, symObjAddr: 0xB40, symBinAddr: 0x1000017C8, symSize: 0x2C }
  - { offsetInCU: 0x1896E, offset: 0x1896E, size: 0x8, addend: 0x0, symName: __ZN14ContestantListC1ENSt3__112basic_stringIcNS0_11char_traitsIcEENS0_9allocatorIcEEEE10PlayerList, symObjAddr: 0xB6C, symBinAddr: 0x1000017F4, symSize: 0x3C }
  - { offsetInCU: 0x189B8, offset: 0x189B8, size: 0x8, addend: 0x0, symName: __ZN14ContestantListD2Ev, symObjAddr: 0xBA8, symBinAddr: 0x100001830, symSize: 0x38 }
  - { offsetInCU: 0x189E4, offset: 0x189E4, size: 0x8, addend: 0x0, symName: __ZN14ContestantListD1Ev, symObjAddr: 0xBE0, symBinAddr: 0x100001868, symSize: 0x2C }
  - { offsetInCU: 0x18A10, offset: 0x18A10, size: 0x8, addend: 0x0, symName: __ZN14ContestantList13newContestantENSt3__112basic_stringIcNS0_11char_traitsIcEENS0_9allocatorIcEEEE, symObjAddr: 0xC0C, symBinAddr: 0x100001894, symSize: 0xCC }
  - { offsetInCU: 0x18A55, offset: 0x18A55, size: 0x8, addend: 0x0, symName: __ZN14ContestantList16removeContestantENSt3__112basic_stringIcNS0_11char_traitsIcEENS0_9allocatorIcEEEE, symObjAddr: 0xCD8, symBinAddr: 0x100001960, symSize: 0x220 }
  - { offsetInCU: 0x18AB6, offset: 0x18AB6, size: 0x8, addend: 0x0, symName: __ZNSt3__112basic_stringIcNS_11char_traitsIcEENS_9allocatorIcEEEaSB7v160006EOS5_, symObjAddr: 0xEF8, symBinAddr: 0x100001B80, symSize: 0x34 }
  - { offsetInCU: 0x18AEB, offset: 0x18AEB, size: 0x8, addend: 0x0, symName: __ZNKSt3__16vectorI10ContestantNS_9allocatorIS1_EEE4sizeB7v160006Ev, symObjAddr: 0xF2C, symBinAddr: 0x100001BB4, symSize: 0x28 }
  - { offsetInCU: 0x18B11, offset: 0x18B11, size: 0x8, addend: 0x0, symName: __ZNSt3__16vectorI10ContestantNS_9allocatorIS1_EEEixB7v160006Em, symObjAddr: 0xF54, symBinAddr: 0x100001BDC, symSize: 0x2C }
  - { offsetInCU: 0x18B48, offset: 0x18B48, size: 0x8, addend: 0x0, symName: __ZNKSt3__112basic_stringIcNS_11char_traitsIcEENS_9allocatorIcEEE7compareB7v160006ERKS5_, symObjAddr: 0xF80, symBinAddr: 0x100001C08, symSize: 0x4C }
  - { offsetInCU: 0x18B7F, offset: 0x18B7F, size: 0x8, addend: 0x0, symName: __ZNSt3__16vectorI10ContestantNS_9allocatorIS1_EEE5eraseB7v160006ENS_11__wrap_iterIPKS1_EE, symObjAddr: 0xFCC, symBinAddr: 0x100001C54, symSize: 0xAC }
  - { offsetInCU: 0x18BD4, offset: 0x18BD4, size: 0x8, addend: 0x0, symName: __ZNSt3__16vectorI10ContestantNS_9allocatorIS1_EEE5beginB7v160006Ev, symObjAddr: 0x1078, symBinAddr: 0x100001D00, symSize: 0x30 }
  - { offsetInCU: 0x18BFC, offset: 0x18BFC, size: 0x8, addend: 0x0, symName: __ZNKSt3__111__wrap_iterIP10ContestantEplB7v160006El, symObjAddr: 0x10A8, symBinAddr: 0x100001D30, symSize: 0x3C }
  - { offsetInCU: 0x18C48, offset: 0x18C48, size: 0x8, addend: 0x0, symName: __ZNSt3__111__wrap_iterIPK10ContestantEC1B7v160006IPS1_EERKNS0_IT_EEPNS_9enable_ifIXsr14is_convertibleIS7_S3_EE5valueEvE4typeE, symObjAddr: 0x10E4, symBinAddr: 0x100001D6C, symSize: 0x3C }
  - { offsetInCU: 0x18C93, offset: 0x18C93, size: 0x8, addend: 0x0, symName: __ZN14ContestantList14editContestantENSt3__112basic_stringIcNS0_11char_traitsIcEENS0_9allocatorIcEEEES6_i10PlayerList, symObjAddr: 0x1120, symBinAddr: 0x100001DA8, symSize: 0x2D0 }
  - { offsetInCU: 0x18D37, offset: 0x18D37, size: 0x8, addend: 0x0, symName: __ZN14ContestantList16setTeamPointsAllEv, symObjAddr: 0x13F0, symBinAddr: 0x100002078, symSize: 0x14C }
  - { offsetInCU: 0x18D81, offset: 0x18D81, size: 0x8, addend: 0x0, symName: __ZN14ContestantList13setWPointsAllE10PlayerList, symObjAddr: 0x15B0, symBinAddr: 0x100002238, symSize: 0xF8 }
  - { offsetInCU: 0x18DD1, offset: 0x18DD1, size: 0x8, addend: 0x0, symName: __ZN10PlayerListC1ERKS_, symObjAddr: 0x16A8, symBinAddr: 0x100002330, symSize: 0x34 }
  - { offsetInCU: 0x18E06, offset: 0x18E06, size: 0x8, addend: 0x0, symName: __ZN14ContestantList13setTPointsAllEv, symObjAddr: 0x16DC, symBinAddr: 0x100002364, symSize: 0x9C }
  - { offsetInCU: 0x18E4A, offset: 0x18E4A, size: 0x8, addend: 0x0, symName: __ZN14ContestantList19printContestantListEv, symObjAddr: 0x1778, symBinAddr: 0x100002400, symSize: 0x158 }
  - { offsetInCU: 0x18E8E, offset: 0x18E8E, size: 0x8, addend: 0x0, symName: __ZNSt3__113basic_ostreamIcNS_11char_traitsIcEEElsB7v160006EPFRNS_8ios_baseES5_E, symObjAddr: 0x1910, symBinAddr: 0x100002598, symSize: 0x40 }
  - { offsetInCU: 0x18EC2, offset: 0x18EC2, size: 0x8, addend: 0x0, symName: __ZN14ContestantList19printContestantTeamENSt3__112basic_stringIcNS0_11char_traitsIcEENS0_9allocatorIcEEEE10PlayerList, symObjAddr: 0x1A78, symBinAddr: 0x100002700, symSize: 0x22C }
  - { offsetInCU: 0x18F32, offset: 0x18F32, size: 0x8, addend: 0x0, symName: __ZN14ContestantList12printConTeamE10PlayerListi, symObjAddr: 0x1CA4, symBinAddr: 0x10000292C, symSize: 0x398 }
  - { offsetInCU: 0x18FBD, offset: 0x18FBD, size: 0x8, addend: 0x0, symName: __ZNKSt3__16vectorINS0_I7PlayersNS_9allocatorIS1_EEEENS2_IS4_EEE4sizeB7v160006Ev, symObjAddr: 0x203C, symBinAddr: 0x100002CC4, symSize: 0x28 }
  - { offsetInCU: 0x18FE3, offset: 0x18FE3, size: 0x8, addend: 0x0, symName: __ZNSt3__16vectorINS0_I7PlayersNS_9allocatorIS1_EEEENS2_IS4_EEEixB7v160006Em, symObjAddr: 0x2064, symBinAddr: 0x100002CEC, symSize: 0x2C }
  - { offsetInCU: 0x1901A, offset: 0x1901A, size: 0x8, addend: 0x0, symName: __ZNKSt3__16vectorI7PlayersNS_9allocatorIS1_EEE4sizeB7v160006Ev, symObjAddr: 0x2090, symBinAddr: 0x100002D18, symSize: 0x28 }
  - { offsetInCU: 0x19040, offset: 0x19040, size: 0x8, addend: 0x0, symName: __ZNSt3__16vectorI7PlayersNS_9allocatorIS1_EEEixB7v160006Em, symObjAddr: 0x20B8, symBinAddr: 0x100002D40, symSize: 0x2C }
  - { offsetInCU: 0x19077, offset: 0x19077, size: 0x8, addend: 0x0, symName: __ZNKSt3__112basic_stringIcNS_11char_traitsIcEENS_9allocatorIcEEE4sizeB7v160006Ev, symObjAddr: 0x20E4, symBinAddr: 0x100002D6C, symSize: 0x54 }
  - { offsetInCU: 0x1909D, offset: 0x1909D, size: 0x8, addend: 0x0, symName: __ZNSt3__16vectorINS0_I7PlayersNS_9allocatorIS1_EEEENS2_IS4_EEED1B7v160006Ev, symObjAddr: 0x2138, symBinAddr: 0x100002DC0, symSize: 0x2C }
  - { offsetInCU: 0x190C7, offset: 0x190C7, size: 0x8, addend: 0x0, symName: __ZN14ContestantList7toFileCENSt3__112basic_stringIcNS0_11char_traitsIcEENS0_9allocatorIcEEEE, symObjAddr: 0x2164, symBinAddr: 0x100002DEC, symSize: 0x11C }
  - { offsetInCU: 0x19129, offset: 0x19129, size: 0x8, addend: 0x0, symName: __ZNSt3__114basic_ofstreamIcNS_11char_traitsIcEEEC1Ev, symObjAddr: 0x2280, symBinAddr: 0x100002F08, symSize: 0xE8 }
  - { offsetInCU: 0x19155, offset: 0x19155, size: 0x8, addend: 0x0, symName: __ZNSt3__114basic_ofstreamIcNS_11char_traitsIcEEE5closeEv, symObjAddr: 0x2368, symBinAddr: 0x100002FF0, symSize: 0x58 }
  - { offsetInCU: 0x19182, offset: 0x19182, size: 0x8, addend: 0x0, symName: __ZNSt3__114basic_ofstreamIcNS_11char_traitsIcEEED1Ev, symObjAddr: 0x23C0, symBinAddr: 0x100003048, symSize: 0x40 }
  - { offsetInCU: 0x191AF, offset: 0x191AF, size: 0x8, addend: 0x0, symName: __ZNSt3__114basic_ifstreamIcNS_11char_traitsIcEEED2Ev, symObjAddr: 0x2400, symBinAddr: 0x100003088, symSize: 0x64 }
  - { offsetInCU: 0x191E9, offset: 0x191E9, size: 0x8, addend: 0x0, symName: __ZTv0_n24_NSt3__114basic_ifstreamIcNS_11char_traitsIcEEED1Ev, symObjAddr: 0x2464, symBinAddr: 0x1000030EC, symSize: 0x28 }
  - { offsetInCU: 0x19200, offset: 0x19200, size: 0x8, addend: 0x0, symName: __ZNSt3__111__wrap_iterIP10ContestantEpLB7v160006El, symObjAddr: 0x248C, symBinAddr: 0x100003114, symSize: 0x30 }
  - { offsetInCU: 0x19234, offset: 0x19234, size: 0x8, addend: 0x0, symName: __ZNSt3__111__wrap_iterIPK10ContestantEC2B7v160006IPS1_EERKNS0_IT_EEPNS_9enable_ifIXsr14is_convertibleIS7_S3_EE5valueEvE4typeE, symObjAddr: 0x24BC, symBinAddr: 0x100003144, symSize: 0x40 }
  - { offsetInCU: 0x1927F, offset: 0x1927F, size: 0x8, addend: 0x0, symName: __ZNKSt3__111__wrap_iterIP10ContestantE4baseB7v160006Ev, symObjAddr: 0x24FC, symBinAddr: 0x100003184, symSize: 0x18 }
  - { offsetInCU: 0x192A5, offset: 0x192A5, size: 0x8, addend: 0x0, symName: __ZN10PlayerListC2ERKS_, symObjAddr: 0x2514, symBinAddr: 0x10000319C, symSize: 0x268 }
  - { offsetInCU: 0x192DA, offset: 0x192DA, size: 0x8, addend: 0x0, symName: __ZNSt3__16vectorI7PlayersNS_9allocatorIS1_EEEC1ERKS4_, symObjAddr: 0x277C, symBinAddr: 0x100003404, symSize: 0x34 }
  - { offsetInCU: 0x19315, offset: 0x19315, size: 0x8, addend: 0x0, symName: __ZNSt3__16vectorINS0_I7PlayersNS_9allocatorIS1_EEEENS2_IS4_EEEC1ERKS6_, symObjAddr: 0x27B0, symBinAddr: 0x100003438, symSize: 0x34 }
  - { offsetInCU: 0x19350, offset: 0x19350, size: 0x8, addend: 0x0, symName: __ZNSt3__16vectorI7PlayersNS_9allocatorIS1_EEED1B7v160006Ev, symObjAddr: 0x27E4, symBinAddr: 0x10000346C, symSize: 0x2C }
  - { offsetInCU: 0x1937A, offset: 0x1937A, size: 0x8, addend: 0x0, symName: __ZNSt3__16vectorI7PlayersNS_9allocatorIS1_EEEC2ERKS4_, symObjAddr: 0x2810, symBinAddr: 0x100003498, symSize: 0x114 }
  - { offsetInCU: 0x193E3, offset: 0x193E3, size: 0x8, addend: 0x0, symName: __ZNSt3__116allocator_traitsINS_9allocatorI7PlayersEEE37select_on_container_copy_constructionB7v160006IS3_vvEES3_RKS3_, symObjAddr: 0x2924, symBinAddr: 0x1000035AC, symSize: 0x10 }
  - { offsetInCU: 0x19412, offset: 0x19412, size: 0x8, addend: 0x0, symName: __ZNKSt3__16vectorI7PlayersNS_9allocatorIS1_EEE7__allocB7v160006Ev, symObjAddr: 0x2934, symBinAddr: 0x1000035BC, symSize: 0x28 }
  - { offsetInCU: 0x19444, offset: 0x19444, size: 0x8, addend: 0x0, symName: __ZNSt3__117__compressed_pairIP7PlayersNS_9allocatorIS1_EEEC1B7v160006IDnS4_EEOT_OT0_, symObjAddr: 0x295C, symBinAddr: 0x1000035E4, symSize: 0x3C }
  - { offsetInCU: 0x1949C, offset: 0x1949C, size: 0x8, addend: 0x0, symName: __ZNSt3__16vectorI7PlayersNS_9allocatorIS1_EEE16__destroy_vectorC1ERS4_, symObjAddr: 0x29D8, symBinAddr: 0x100003660, symSize: 0x34 }
  - { offsetInCU: 0x194D5, offset: 0x194D5, size: 0x8, addend: 0x0, symName: __ZNSt3__16vectorI7PlayersNS_9allocatorIS1_EEE11__vallocateB7v160006Em, symObjAddr: 0x2A1C, symBinAddr: 0x1000036A4, symSize: 0xB4 }
  - { offsetInCU: 0x19519, offset: 0x19519, size: 0x8, addend: 0x0, symName: __ZNSt3__16vectorI7PlayersNS_9allocatorIS1_EEE18__construct_at_endIPS1_Li0EEEvT_S7_m, symObjAddr: 0x2AD0, symBinAddr: 0x100003758, symSize: 0x8C }
  - { offsetInCU: 0x1958C, offset: 0x1958C, size: 0x8, addend: 0x0, symName: __ZNSt3__128__exception_guard_exceptionsINS_6vectorI7PlayersNS_9allocatorIS2_EEE16__destroy_vectorEE10__completeB7v160006Ev, symObjAddr: 0x2B5C, symBinAddr: 0x1000037E4, symSize: 0x1C }
  - { offsetInCU: 0x195B2, offset: 0x195B2, size: 0x8, addend: 0x0, symName: __ZNSt3__128__exception_guard_exceptionsINS_6vectorI7PlayersNS_9allocatorIS2_EEE16__destroy_vectorEED1B7v160006Ev, symObjAddr: 0x2B78, symBinAddr: 0x100003800, symSize: 0x2C }
  - { offsetInCU: 0x195DC, offset: 0x195DC, size: 0x8, addend: 0x0, symName: __ZNKSt3__117__compressed_pairIP7PlayersNS_9allocatorIS1_EEE6secondB7v160006Ev, symObjAddr: 0x2BA4, symBinAddr: 0x10000382C, symSize: 0x24 }
  - { offsetInCU: 0x19602, offset: 0x19602, size: 0x8, addend: 0x0, symName: __ZNKSt3__122__compressed_pair_elemINS_9allocatorI7PlayersEELi1ELb1EE5__getB7v160006Ev, symObjAddr: 0x2BC8, symBinAddr: 0x100003850, symSize: 0x14 }
  - { offsetInCU: 0x19628, offset: 0x19628, size: 0x8, addend: 0x0, symName: __ZNSt3__117__compressed_pairIP7PlayersNS_9allocatorIS1_EEEC2B7v160006IDnS4_EEOT_OT0_, symObjAddr: 0x2BDC, symBinAddr: 0x100003864, symSize: 0x44 }
  - { offsetInCU: 0x19680, offset: 0x19680, size: 0x8, addend: 0x0, symName: __ZNSt3__122__compressed_pair_elemIP7PlayersLi0ELb0EEC2B7v160006IDnvEEOT_, symObjAddr: 0x2C20, symBinAddr: 0x1000038A8, symSize: 0x1C }
  - { offsetInCU: 0x196C2, offset: 0x196C2, size: 0x8, addend: 0x0, symName: __ZNSt3__122__compressed_pair_elemINS_9allocatorI7PlayersEELi1ELb1EEC2B7v160006IS3_vEEOT_, symObjAddr: 0x2C3C, symBinAddr: 0x1000038C4, symSize: 0x18 }
  - { offsetInCU: 0x19704, offset: 0x19704, size: 0x8, addend: 0x0, symName: __ZNSt3__128__exception_guard_exceptionsINS_6vectorI7PlayersNS_9allocatorIS2_EEE16__destroy_vectorEEC1B7v160006ES6_, symObjAddr: 0x2C54, symBinAddr: 0x1000038DC, symSize: 0x34 }
  - { offsetInCU: 0x1973C, offset: 0x1973C, size: 0x8, addend: 0x0, symName: __ZNSt3__128__exception_guard_exceptionsINS_6vectorI7PlayersNS_9allocatorIS2_EEE16__destroy_vectorEEC2B7v160006ES6_, symObjAddr: 0x2C88, symBinAddr: 0x100003910, symSize: 0x24 }
  - { offsetInCU: 0x19774, offset: 0x19774, size: 0x8, addend: 0x0, symName: __ZNSt3__16vectorI7PlayersNS_9allocatorIS1_EEE16__destroy_vectorC2ERS4_, symObjAddr: 0x2CAC, symBinAddr: 0x100003934, symSize: 0x20 }
  - { offsetInCU: 0x197AD, offset: 0x197AD, size: 0x8, addend: 0x0, symName: __ZNKSt3__16vectorI7PlayersNS_9allocatorIS1_EEE8max_sizeEv, symObjAddr: 0x2CCC, symBinAddr: 0x100003954, symSize: 0x60 }
  - { offsetInCU: 0x197D5, offset: 0x197D5, size: 0x8, addend: 0x0, symName: __ZNKSt3__16vectorI7PlayersNS_9allocatorIS1_EEE20__throw_length_errorB7v160006Ev, symObjAddr: 0x2D2C, symBinAddr: 0x1000039B4, symSize: 0x1C }
  - { offsetInCU: 0x197FB, offset: 0x197FB, size: 0x8, addend: 0x0, symName: __ZNSt3__16vectorI7PlayersNS_9allocatorIS1_EEE7__allocB7v160006Ev, symObjAddr: 0x2D88, symBinAddr: 0x100003A10, symSize: 0x28 }
  - { offsetInCU: 0x19821, offset: 0x19821, size: 0x8, addend: 0x0, symName: __ZNSt3__16vectorI7PlayersNS_9allocatorIS1_EEE9__end_capB7v160006Ev, symObjAddr: 0x2DB0, symBinAddr: 0x100003A38, symSize: 0x28 }
  - { offsetInCU: 0x19847, offset: 0x19847, size: 0x8, addend: 0x0, symName: __ZNKSt3__16vectorI7PlayersNS_9allocatorIS1_EEE14__annotate_newB7v160006Em, symObjAddr: 0x2DD8, symBinAddr: 0x100003A60, symSize: 0xC8 }
  - { offsetInCU: 0x1987C, offset: 0x1987C, size: 0x8, addend: 0x0, symName: __ZNSt3__116allocator_traitsINS_9allocatorI7PlayersEEE8max_sizeB7v160006IS3_vEEmRKS3_, symObjAddr: 0x2ECC, symBinAddr: 0x100003B54, symSize: 0x24 }
  - { offsetInCU: 0x198AA, offset: 0x198AA, size: 0x8, addend: 0x0, symName: __ZNSt3__114numeric_limitsIlE3maxB7v160006Ev, symObjAddr: 0x2EF0, symBinAddr: 0x100003B78, symSize: 0x14 }
  - { offsetInCU: 0x198D2, offset: 0x198D2, size: 0x8, addend: 0x0, symName: __ZNKSt3__16__lessImmEclB7v160006ERKmS3_, symObjAddr: 0x2F64, symBinAddr: 0x100003BEC, symSize: 0x34 }
  - { offsetInCU: 0x19914, offset: 0x19914, size: 0x8, addend: 0x0, symName: __ZNKSt3__19allocatorI7PlayersE8max_sizeB7v160006Ev, symObjAddr: 0x2F98, symBinAddr: 0x100003C20, symSize: 0x18 }
  - { offsetInCU: 0x1993A, offset: 0x1993A, size: 0x8, addend: 0x0, symName: __ZNSt3__123__libcpp_numeric_limitsIlLb1EE3maxB7v160006Ev, symObjAddr: 0x2FB0, symBinAddr: 0x100003C38, symSize: 0x8 }
  - { offsetInCU: 0x1994E, offset: 0x1994E, size: 0x8, addend: 0x0, symName: __ZNSt12length_errorC1B7v160006EPKc, symObjAddr: 0x301C, symBinAddr: 0x100003CA4, symSize: 0x34 }
  - { offsetInCU: 0x19986, offset: 0x19986, size: 0x8, addend: 0x0, symName: __ZNSt12length_errorC2B7v160006EPKc, symObjAddr: 0x3050, symBinAddr: 0x100003CD8, symSize: 0x4C }
  - { offsetInCU: 0x199BE, offset: 0x199BE, size: 0x8, addend: 0x0, symName: __ZNSt3__19allocatorI7PlayersE8allocateB7v160006Em, symObjAddr: 0x309C, symBinAddr: 0x100003D24, symSize: 0x5C }
  - { offsetInCU: 0x199F2, offset: 0x199F2, size: 0x8, addend: 0x0, symName: __ZNSt3__117__compressed_pairIP7PlayersNS_9allocatorIS1_EEE6secondB7v160006Ev, symObjAddr: 0x31FC, symBinAddr: 0x100003E84, symSize: 0x24 }
  - { offsetInCU: 0x19A18, offset: 0x19A18, size: 0x8, addend: 0x0, symName: __ZNSt3__122__compressed_pair_elemINS_9allocatorI7PlayersEELi1ELb1EE5__getB7v160006Ev, symObjAddr: 0x3220, symBinAddr: 0x100003EA8, symSize: 0x14 }
  - { offsetInCU: 0x19A3E, offset: 0x19A3E, size: 0x8, addend: 0x0, symName: __ZNSt3__117__compressed_pairIP7PlayersNS_9allocatorIS1_EEE5firstB7v160006Ev, symObjAddr: 0x3234, symBinAddr: 0x100003EBC, symSize: 0x24 }
  - { offsetInCU: 0x19A64, offset: 0x19A64, size: 0x8, addend: 0x0, symName: __ZNSt3__122__compressed_pair_elemIP7PlayersLi0ELb0EE5__getB7v160006Ev, symObjAddr: 0x3258, symBinAddr: 0x100003EE0, symSize: 0x14 }
  - { offsetInCU: 0x19A8A, offset: 0x19A8A, size: 0x8, addend: 0x0, symName: __ZNKSt3__16vectorI7PlayersNS_9allocatorIS1_EEE31__annotate_contiguous_containerB7v160006EPKvS6_S6_S6_, symObjAddr: 0x326C, symBinAddr: 0x100003EF4, symSize: 0x20 }
  - { offsetInCU: 0x19AE0, offset: 0x19AE0, size: 0x8, addend: 0x0, symName: __ZNKSt3__16vectorI7PlayersNS_9allocatorIS1_EEE4dataB7v160006Ev, symObjAddr: 0x328C, symBinAddr: 0x100003F14, symSize: 0x28 }
  - { offsetInCU: 0x19B06, offset: 0x19B06, size: 0x8, addend: 0x0, symName: __ZNKSt3__16vectorI7PlayersNS_9allocatorIS1_EEE8capacityB7v160006Ev, symObjAddr: 0x32B4, symBinAddr: 0x100003F3C, symSize: 0x40 }
  - { offsetInCU: 0x19B2C, offset: 0x19B2C, size: 0x8, addend: 0x0, symName: __ZNKSt3__16vectorI7PlayersNS_9allocatorIS1_EEE9__end_capB7v160006Ev, symObjAddr: 0x3308, symBinAddr: 0x100003F90, symSize: 0x28 }
  - { offsetInCU: 0x19B52, offset: 0x19B52, size: 0x8, addend: 0x0, symName: __ZNKSt3__117__compressed_pairIP7PlayersNS_9allocatorIS1_EEE5firstB7v160006Ev, symObjAddr: 0x3330, symBinAddr: 0x100003FB8, symSize: 0x24 }
  - { offsetInCU: 0x19B78, offset: 0x19B78, size: 0x8, addend: 0x0, symName: __ZNKSt3__122__compressed_pair_elemIP7PlayersLi0ELb0EE5__getB7v160006Ev, symObjAddr: 0x3354, symBinAddr: 0x100003FDC, symSize: 0x14 }
  - { offsetInCU: 0x19BB7, offset: 0x19BB7, size: 0x8, addend: 0x0, symName: __ZNSt3__16vectorI7PlayersNS_9allocatorIS1_EEE21_ConstructTransactionC1B7v160006ERS4_m, symObjAddr: 0x3368, symBinAddr: 0x100003FF0, symSize: 0x3C }
  - { offsetInCU: 0x19BFF, offset: 0x19BFF, size: 0x8, addend: 0x0, symName: __ZNSt3__16vectorI7PlayersNS_9allocatorIS1_EEE21_ConstructTransactionD1B7v160006Ev, symObjAddr: 0x3498, symBinAddr: 0x100004120, symSize: 0x2C }
  - { offsetInCU: 0x19C29, offset: 0x19C29, size: 0x8, addend: 0x0, symName: __ZNSt3__16vectorI7PlayersNS_9allocatorIS1_EEE21_ConstructTransactionC2B7v160006ERS4_m, symObjAddr: 0x34C4, symBinAddr: 0x10000414C, symSize: 0x4C }
  - { offsetInCU: 0x19C71, offset: 0x19C71, size: 0x8, addend: 0x0, symName: __ZNSt3__129_AllocatorDestroyRangeReverseINS_9allocatorI7PlayersEEPS2_EC1B7v160006ERS3_RS4_S7_, symObjAddr: 0x355C, symBinAddr: 0x1000041E4, symSize: 0x44 }
  - { offsetInCU: 0x19CC8, offset: 0x19CC8, size: 0x8, addend: 0x0, symName: __ZNSt3__116allocator_traitsINS_9allocatorI7PlayersEEE9constructB7v160006IS2_JRS2_EvEEvRS3_PT_DpOT0_, symObjAddr: 0x35A0, symBinAddr: 0x100004228, symSize: 0x34 }
  - { offsetInCU: 0x19D1F, offset: 0x19D1F, size: 0x8, addend: 0x0, symName: __ZNSt3__128__exception_guard_exceptionsINS_29_AllocatorDestroyRangeReverseINS_9allocatorI7PlayersEEPS3_EEE10__completeB7v160006Ev, symObjAddr: 0x35D4, symBinAddr: 0x10000425C, symSize: 0x1C }
  - { offsetInCU: 0x19D45, offset: 0x19D45, size: 0x8, addend: 0x0, symName: __ZNSt3__128__exception_guard_exceptionsINS_29_AllocatorDestroyRangeReverseINS_9allocatorI7PlayersEEPS3_EEED1B7v160006Ev, symObjAddr: 0x35F0, symBinAddr: 0x100004278, symSize: 0x2C }
  - { offsetInCU: 0x19D6F, offset: 0x19D6F, size: 0x8, addend: 0x0, symName: __ZNSt3__128__exception_guard_exceptionsINS_29_AllocatorDestroyRangeReverseINS_9allocatorI7PlayersEEPS3_EEEC1B7v160006ES6_, symObjAddr: 0x361C, symBinAddr: 0x1000042A4, symSize: 0x34 }
  - { offsetInCU: 0x19DA8, offset: 0x19DA8, size: 0x8, addend: 0x0, symName: __ZNSt3__128__exception_guard_exceptionsINS_29_AllocatorDestroyRangeReverseINS_9allocatorI7PlayersEEPS3_EEEC2B7v160006ES6_, symObjAddr: 0x3650, symBinAddr: 0x1000042D8, symSize: 0x30 }
  - { offsetInCU: 0x19DE1, offset: 0x19DE1, size: 0x8, addend: 0x0, symName: __ZNSt3__129_AllocatorDestroyRangeReverseINS_9allocatorI7PlayersEEPS2_EC2B7v160006ERS3_RS4_S7_, symObjAddr: 0x3680, symBinAddr: 0x100004308, symSize: 0x38 }
  - { offsetInCU: 0x19E38, offset: 0x19E38, size: 0x8, addend: 0x0, symName: __ZNSt3__19allocatorI7PlayersE9constructB7v160006IS1_JRS1_EEEvPT_DpOT0_, symObjAddr: 0x36B8, symBinAddr: 0x100004340, symSize: 0x30 }
  - { offsetInCU: 0x19E8E, offset: 0x19E8E, size: 0x8, addend: 0x0, symName: __ZN7PlayersC1ERKS_, symObjAddr: 0x36E8, symBinAddr: 0x100004370, symSize: 0x34 }
  - { offsetInCU: 0x19EC3, offset: 0x19EC3, size: 0x8, addend: 0x0, symName: __ZN7PlayersC2ERKS_, symObjAddr: 0x371C, symBinAddr: 0x1000043A4, symSize: 0xBC }
  - { offsetInCU: 0x19EF8, offset: 0x19EF8, size: 0x8, addend: 0x0, symName: __ZNSt3__128__exception_guard_exceptionsINS_29_AllocatorDestroyRangeReverseINS_9allocatorI7PlayersEEPS3_EEED2B7v160006Ev, symObjAddr: 0x37D8, symBinAddr: 0x100004460, symSize: 0x50 }
  - { offsetInCU: 0x19F22, offset: 0x19F22, size: 0x8, addend: 0x0, symName: __ZNKSt3__129_AllocatorDestroyRangeReverseINS_9allocatorI7PlayersEEPS2_EclB7v160006Ev, symObjAddr: 0x3828, symBinAddr: 0x1000044B0, symSize: 0x68 }
  - { offsetInCU: 0x19F48, offset: 0x19F48, size: 0x8, addend: 0x0, symName: __ZNSt3__116reverse_iteratorIP7PlayersEC1B7v160006ES2_, symObjAddr: 0x3900, symBinAddr: 0x100004588, symSize: 0x34 }
  - { offsetInCU: 0x19F80, offset: 0x19F80, size: 0x8, addend: 0x0, symName: __ZNSt3__116allocator_traitsINS_9allocatorI7PlayersEEE7destroyB7v160006IS2_vEEvRS3_PT_, symObjAddr: 0x397C, symBinAddr: 0x100004604, symSize: 0x2C }
  - { offsetInCU: 0x19FBD, offset: 0x19FBD, size: 0x8, addend: 0x0, symName: __ZNSt3__116reverse_iteratorIP7PlayersEppB7v160006Ev, symObjAddr: 0x39CC, symBinAddr: 0x100004654, symSize: 0x20 }
  - { offsetInCU: 0x19FE3, offset: 0x19FE3, size: 0x8, addend: 0x0, symName: __ZNKSt3__116reverse_iteratorIP7PlayersE4baseB7v160006Ev, symObjAddr: 0x39EC, symBinAddr: 0x100004674, symSize: 0x18 }
  - { offsetInCU: 0x1A009, offset: 0x1A009, size: 0x8, addend: 0x0, symName: __ZNSt3__19allocatorI7PlayersE7destroyB7v160006EPS1_, symObjAddr: 0x3A04, symBinAddr: 0x10000468C, symSize: 0x28 }
  - { offsetInCU: 0x1A042, offset: 0x1A042, size: 0x8, addend: 0x0, symName: __ZNSt3__119__to_address_helperINS_16reverse_iteratorIP7PlayersEEvE6__callB7v160006ERKS4_, symObjAddr: 0x3A2C, symBinAddr: 0x1000046B4, symSize: 0x38 }
  - { offsetInCU: 0x1A065, offset: 0x1A065, size: 0x8, addend: 0x0, symName: __ZNKSt3__116reverse_iteratorIP7PlayersEptB7v160006Ev, symObjAddr: 0x3A64, symBinAddr: 0x1000046EC, symSize: 0x24 }
  - { offsetInCU: 0x1A08B, offset: 0x1A08B, size: 0x8, addend: 0x0, symName: __ZNKSt3__116reverse_iteratorIP7PlayersEdeB7v160006Ev, symObjAddr: 0x3A88, symBinAddr: 0x100004710, symSize: 0x28 }
  - { offsetInCU: 0x1A0BF, offset: 0x1A0BF, size: 0x8, addend: 0x0, symName: __ZNSt3__116reverse_iteratorIP7PlayersEC2B7v160006ES2_, symObjAddr: 0x3AB0, symBinAddr: 0x100004738, symSize: 0x28 }
  - { offsetInCU: 0x1A0F7, offset: 0x1A0F7, size: 0x8, addend: 0x0, symName: __ZNSt3__16vectorI7PlayersNS_9allocatorIS1_EEE21_ConstructTransactionD2B7v160006Ev, symObjAddr: 0x3AD8, symBinAddr: 0x100004760, symSize: 0x20 }
  - { offsetInCU: 0x1A121, offset: 0x1A121, size: 0x8, addend: 0x0, symName: __ZNSt3__128__exception_guard_exceptionsINS_6vectorI7PlayersNS_9allocatorIS2_EEE16__destroy_vectorEED2B7v160006Ev, symObjAddr: 0x3AF8, symBinAddr: 0x100004780, symSize: 0x50 }
  - { offsetInCU: 0x1A14B, offset: 0x1A14B, size: 0x8, addend: 0x0, symName: __ZNSt3__16vectorI7PlayersNS_9allocatorIS1_EEE16__destroy_vectorclB7v160006Ev, symObjAddr: 0x3B48, symBinAddr: 0x1000047D0, symSize: 0x9C }
  - { offsetInCU: 0x1A171, offset: 0x1A171, size: 0x8, addend: 0x0, symName: __ZNKSt3__16vectorI7PlayersNS_9allocatorIS1_EEE17__annotate_deleteB7v160006Ev, symObjAddr: 0x3BE4, symBinAddr: 0x10000486C, symSize: 0xD4 }
  - { offsetInCU: 0x1A197, offset: 0x1A197, size: 0x8, addend: 0x0, symName: __ZNSt3__16vectorI7PlayersNS_9allocatorIS1_EEE7__clearB7v160006Ev, symObjAddr: 0x3CC8, symBinAddr: 0x100004950, symSize: 0x28 }
  - { offsetInCU: 0x1A1BD, offset: 0x1A1BD, size: 0x8, addend: 0x0, symName: __ZNSt3__116allocator_traitsINS_9allocatorI7PlayersEEE10deallocateB7v160006ERS3_PS2_m, symObjAddr: 0x3CF0, symBinAddr: 0x100004978, symSize: 0x34 }
  - { offsetInCU: 0x1A1FF, offset: 0x1A1FF, size: 0x8, addend: 0x0, symName: __ZNSt3__16vectorI7PlayersNS_9allocatorIS1_EEE22__base_destruct_at_endB7v160006EPS1_, symObjAddr: 0x3D24, symBinAddr: 0x1000049AC, symSize: 0x8C }
  - { offsetInCU: 0x1A243, offset: 0x1A243, size: 0x8, addend: 0x0, symName: __ZNSt3__19allocatorI7PlayersE10deallocateB7v160006EPS1_m, symObjAddr: 0x3DB0, symBinAddr: 0x100004A38, symSize: 0x44 }
  - { offsetInCU: 0x1A285, offset: 0x1A285, size: 0x8, addend: 0x0, symName: __ZNSt3__16vectorINS0_I7PlayersNS_9allocatorIS1_EEEENS2_IS4_EEEC2ERKS6_, symObjAddr: 0x3EFC, symBinAddr: 0x100004B84, symSize: 0x114 }
  - { offsetInCU: 0x1A2EE, offset: 0x1A2EE, size: 0x8, addend: 0x0, symName: __ZNSt3__116allocator_traitsINS_9allocatorINS_6vectorI7PlayersNS1_IS3_EEEEEEE37select_on_container_copy_constructionB7v160006IS6_vvEES6_RKS6_, symObjAddr: 0x4010, symBinAddr: 0x100004C98, symSize: 0x10 }
  - { offsetInCU: 0x1A31D, offset: 0x1A31D, size: 0x8, addend: 0x0, symName: __ZNKSt3__16vectorINS0_I7PlayersNS_9allocatorIS1_EEEENS2_IS4_EEE7__allocB7v160006Ev, symObjAddr: 0x4020, symBinAddr: 0x100004CA8, symSize: 0x28 }
  - { offsetInCU: 0x1A349, offset: 0x1A349, size: 0x8, addend: 0x0, symName: __ZNSt3__117__compressed_pairIPNS_6vectorI7PlayersNS_9allocatorIS2_EEEENS3_IS5_EEEC1B7v160006IDnS7_EEOT_OT0_, symObjAddr: 0x4048, symBinAddr: 0x100004CD0, symSize: 0x3C }
  - { offsetInCU: 0x1A3A1, offset: 0x1A3A1, size: 0x8, addend: 0x0, symName: __ZNSt3__16vectorINS0_I7PlayersNS_9allocatorIS1_EEEENS2_IS4_EEE16__destroy_vectorC1ERS6_, symObjAddr: 0x40C4, symBinAddr: 0x100004D4C, symSize: 0x34 }
  - { offsetInCU: 0x1A3DA, offset: 0x1A3DA, size: 0x8, addend: 0x0, symName: __ZNSt3__16vectorINS0_I7PlayersNS_9allocatorIS1_EEEENS2_IS4_EEE11__vallocateB7v160006Em, symObjAddr: 0x4108, symBinAddr: 0x100004D90, symSize: 0xB4 }
  - { offsetInCU: 0x1A41E, offset: 0x1A41E, size: 0x8, addend: 0x0, symName: __ZNSt3__16vectorINS0_I7PlayersNS_9allocatorIS1_EEEENS2_IS4_EEE18__construct_at_endIPS4_Li0EEEvT_S9_m, symObjAddr: 0x41BC, symBinAddr: 0x100004E44, symSize: 0x8C }
  - { offsetInCU: 0x1A491, offset: 0x1A491, size: 0x8, addend: 0x0, symName: __ZNSt3__128__exception_guard_exceptionsINS_6vectorINS1_I7PlayersNS_9allocatorIS2_EEEENS3_IS5_EEE16__destroy_vectorEE10__completeB7v160006Ev, symObjAddr: 0x4248, symBinAddr: 0x100004ED0, symSize: 0x1C }
  - { offsetInCU: 0x1A4B7, offset: 0x1A4B7, size: 0x8, addend: 0x0, symName: __ZNSt3__128__exception_guard_exceptionsINS_6vectorINS1_I7PlayersNS_9allocatorIS2_EEEENS3_IS5_EEE16__destroy_vectorEED1B7v160006Ev, symObjAddr: 0x4264, symBinAddr: 0x100004EEC, symSize: 0x2C }
  - { offsetInCU: 0x1A4E1, offset: 0x1A4E1, size: 0x8, addend: 0x0, symName: __ZNKSt3__117__compressed_pairIPNS_6vectorI7PlayersNS_9allocatorIS2_EEEENS3_IS5_EEE6secondB7v160006Ev, symObjAddr: 0x4290, symBinAddr: 0x100004F18, symSize: 0x24 }
  - { offsetInCU: 0x1A507, offset: 0x1A507, size: 0x8, addend: 0x0, symName: __ZNKSt3__122__compressed_pair_elemINS_9allocatorINS_6vectorI7PlayersNS1_IS3_EEEEEELi1ELb1EE5__getB7v160006Ev, symObjAddr: 0x42B4, symBinAddr: 0x100004F3C, symSize: 0x14 }
  - { offsetInCU: 0x1A52D, offset: 0x1A52D, size: 0x8, addend: 0x0, symName: __ZNSt3__117__compressed_pairIPNS_6vectorI7PlayersNS_9allocatorIS2_EEEENS3_IS5_EEEC2B7v160006IDnS7_EEOT_OT0_, symObjAddr: 0x42C8, symBinAddr: 0x100004F50, symSize: 0x44 }
  - { offsetInCU: 0x1A585, offset: 0x1A585, size: 0x8, addend: 0x0, symName: __ZNSt3__122__compressed_pair_elemIPNS_6vectorI7PlayersNS_9allocatorIS2_EEEELi0ELb0EEC2B7v160006IDnvEEOT_, symObjAddr: 0x430C, symBinAddr: 0x100004F94, symSize: 0x1C }
  - { offsetInCU: 0x1A5C7, offset: 0x1A5C7, size: 0x8, addend: 0x0, symName: __ZNSt3__122__compressed_pair_elemINS_9allocatorINS_6vectorI7PlayersNS1_IS3_EEEEEELi1ELb1EEC2B7v160006IS6_vEEOT_, symObjAddr: 0x4328, symBinAddr: 0x100004FB0, symSize: 0x18 }
  - { offsetInCU: 0x1A609, offset: 0x1A609, size: 0x8, addend: 0x0, symName: __ZNSt3__128__exception_guard_exceptionsINS_6vectorINS1_I7PlayersNS_9allocatorIS2_EEEENS3_IS5_EEE16__destroy_vectorEEC1B7v160006ES8_, symObjAddr: 0x4340, symBinAddr: 0x100004FC8, symSize: 0x34 }
  - { offsetInCU: 0x1A641, offset: 0x1A641, size: 0x8, addend: 0x0, symName: __ZNSt3__128__exception_guard_exceptionsINS_6vectorINS1_I7PlayersNS_9allocatorIS2_EEEENS3_IS5_EEE16__destroy_vectorEEC2B7v160006ES8_, symObjAddr: 0x4374, symBinAddr: 0x100004FFC, symSize: 0x24 }
  - { offsetInCU: 0x1A679, offset: 0x1A679, size: 0x8, addend: 0x0, symName: __ZNSt3__16vectorINS0_I7PlayersNS_9allocatorIS1_EEEENS2_IS4_EEE16__destroy_vectorC2ERS6_, symObjAddr: 0x4398, symBinAddr: 0x100005020, symSize: 0x20 }
  - { offsetInCU: 0x1A6B2, offset: 0x1A6B2, size: 0x8, addend: 0x0, symName: __ZNKSt3__16vectorINS0_I7PlayersNS_9allocatorIS1_EEEENS2_IS4_EEE8max_sizeEv, symObjAddr: 0x43B8, symBinAddr: 0x100005040, symSize: 0x60 }
  - { offsetInCU: 0x1A6DA, offset: 0x1A6DA, size: 0x8, addend: 0x0, symName: __ZNKSt3__16vectorINS0_I7PlayersNS_9allocatorIS1_EEEENS2_IS4_EEE20__throw_length_errorB7v160006Ev, symObjAddr: 0x4418, symBinAddr: 0x1000050A0, symSize: 0x1C }
  - { offsetInCU: 0x1A700, offset: 0x1A700, size: 0x8, addend: 0x0, symName: __ZNSt3__16vectorINS0_I7PlayersNS_9allocatorIS1_EEEENS2_IS4_EEE7__allocB7v160006Ev, symObjAddr: 0x4474, symBinAddr: 0x1000050FC, symSize: 0x28 }
  - { offsetInCU: 0x1A726, offset: 0x1A726, size: 0x8, addend: 0x0, symName: __ZNSt3__16vectorINS0_I7PlayersNS_9allocatorIS1_EEEENS2_IS4_EEE9__end_capB7v160006Ev, symObjAddr: 0x449C, symBinAddr: 0x100005124, symSize: 0x28 }
  - { offsetInCU: 0x1A74C, offset: 0x1A74C, size: 0x8, addend: 0x0, symName: __ZNKSt3__16vectorINS0_I7PlayersNS_9allocatorIS1_EEEENS2_IS4_EEE14__annotate_newB7v160006Em, symObjAddr: 0x44C4, symBinAddr: 0x10000514C, symSize: 0xC8 }
  - { offsetInCU: 0x1A781, offset: 0x1A781, size: 0x8, addend: 0x0, symName: __ZNSt3__116allocator_traitsINS_9allocatorINS_6vectorI7PlayersNS1_IS3_EEEEEEE8max_sizeB7v160006IS6_vEEmRKS6_, symObjAddr: 0x458C, symBinAddr: 0x100005214, symSize: 0x24 }
  - { offsetInCU: 0x1A7AF, offset: 0x1A7AF, size: 0x8, addend: 0x0, symName: __ZNKSt3__19allocatorINS_6vectorI7PlayersNS0_IS2_EEEEE8max_sizeB7v160006Ev, symObjAddr: 0x45B0, symBinAddr: 0x100005238, symSize: 0x18 }
  - { offsetInCU: 0x1A7D5, offset: 0x1A7D5, size: 0x8, addend: 0x0, symName: __ZNSt3__19allocatorINS_6vectorI7PlayersNS0_IS2_EEEEE8allocateB7v160006Em, symObjAddr: 0x45C8, symBinAddr: 0x100005250, symSize: 0x5C }
  - { offsetInCU: 0x1A809, offset: 0x1A809, size: 0x8, addend: 0x0, symName: __ZNSt3__117__compressed_pairIPNS_6vectorI7PlayersNS_9allocatorIS2_EEEENS3_IS5_EEE6secondB7v160006Ev, symObjAddr: 0x4624, symBinAddr: 0x1000052AC, symSize: 0x24 }
  - { offsetInCU: 0x1A82F, offset: 0x1A82F, size: 0x8, addend: 0x0, symName: __ZNSt3__122__compressed_pair_elemINS_9allocatorINS_6vectorI7PlayersNS1_IS3_EEEEEELi1ELb1EE5__getB7v160006Ev, symObjAddr: 0x4648, symBinAddr: 0x1000052D0, symSize: 0x14 }
  - { offsetInCU: 0x1A855, offset: 0x1A855, size: 0x8, addend: 0x0, symName: __ZNSt3__117__compressed_pairIPNS_6vectorI7PlayersNS_9allocatorIS2_EEEENS3_IS5_EEE5firstB7v160006Ev, symObjAddr: 0x465C, symBinAddr: 0x1000052E4, symSize: 0x24 }
  - { offsetInCU: 0x1A87B, offset: 0x1A87B, size: 0x8, addend: 0x0, symName: __ZNSt3__122__compressed_pair_elemIPNS_6vectorI7PlayersNS_9allocatorIS2_EEEELi0ELb0EE5__getB7v160006Ev, symObjAddr: 0x4680, symBinAddr: 0x100005308, symSize: 0x14 }
  - { offsetInCU: 0x1A8A1, offset: 0x1A8A1, size: 0x8, addend: 0x0, symName: __ZNKSt3__16vectorINS0_I7PlayersNS_9allocatorIS1_EEEENS2_IS4_EEE31__annotate_contiguous_containerB7v160006EPKvS8_S8_S8_, symObjAddr: 0x4694, symBinAddr: 0x10000531C, symSize: 0x20 }
  - { offsetInCU: 0x1A8F7, offset: 0x1A8F7, size: 0x8, addend: 0x0, symName: __ZNKSt3__16vectorINS0_I7PlayersNS_9allocatorIS1_EEEENS2_IS4_EEE4dataB7v160006Ev, symObjAddr: 0x46B4, symBinAddr: 0x10000533C, symSize: 0x28 }
  - { offsetInCU: 0x1A91D, offset: 0x1A91D, size: 0x8, addend: 0x0, symName: __ZNKSt3__16vectorINS0_I7PlayersNS_9allocatorIS1_EEEENS2_IS4_EEE8capacityB7v160006Ev, symObjAddr: 0x46DC, symBinAddr: 0x100005364, symSize: 0x40 }
  - { offsetInCU: 0x1A943, offset: 0x1A943, size: 0x8, addend: 0x0, symName: __ZNKSt3__16vectorINS0_I7PlayersNS_9allocatorIS1_EEEENS2_IS4_EEE9__end_capB7v160006Ev, symObjAddr: 0x4730, symBinAddr: 0x1000053B8, symSize: 0x28 }
  - { offsetInCU: 0x1A969, offset: 0x1A969, size: 0x8, addend: 0x0, symName: __ZNKSt3__117__compressed_pairIPNS_6vectorI7PlayersNS_9allocatorIS2_EEEENS3_IS5_EEE5firstB7v160006Ev, symObjAddr: 0x4758, symBinAddr: 0x1000053E0, symSize: 0x24 }
  - { offsetInCU: 0x1A98F, offset: 0x1A98F, size: 0x8, addend: 0x0, symName: __ZNKSt3__122__compressed_pair_elemIPNS_6vectorI7PlayersNS_9allocatorIS2_EEEELi0ELb0EE5__getB7v160006Ev, symObjAddr: 0x477C, symBinAddr: 0x100005404, symSize: 0x14 }
  - { offsetInCU: 0x1A9CE, offset: 0x1A9CE, size: 0x8, addend: 0x0, symName: __ZNSt3__16vectorINS0_I7PlayersNS_9allocatorIS1_EEEENS2_IS4_EEE21_ConstructTransactionC1B7v160006ERS6_m, symObjAddr: 0x4790, symBinAddr: 0x100005418, symSize: 0x3C }
  - { offsetInCU: 0x1AA16, offset: 0x1AA16, size: 0x8, addend: 0x0, symName: __ZNSt3__16vectorINS0_I7PlayersNS_9allocatorIS1_EEEENS2_IS4_EEE21_ConstructTransactionD1B7v160006Ev, symObjAddr: 0x48C0, symBinAddr: 0x100005548, symSize: 0x2C }
  - { offsetInCU: 0x1AA40, offset: 0x1AA40, size: 0x8, addend: 0x0, symName: __ZNSt3__16vectorINS0_I7PlayersNS_9allocatorIS1_EEEENS2_IS4_EEE21_ConstructTransactionC2B7v160006ERS6_m, symObjAddr: 0x48EC, symBinAddr: 0x100005574, symSize: 0x4C }
  - { offsetInCU: 0x1AA88, offset: 0x1AA88, size: 0x8, addend: 0x0, symName: __ZNSt3__129_AllocatorDestroyRangeReverseINS_9allocatorINS_6vectorI7PlayersNS1_IS3_EEEEEEPS5_EC1B7v160006ERS6_RS7_SA_, symObjAddr: 0x4984, symBinAddr: 0x10000560C, symSize: 0x44 }
  - { offsetInCU: 0x1AADF, offset: 0x1AADF, size: 0x8, addend: 0x0, symName: __ZNSt3__116allocator_traitsINS_9allocatorINS_6vectorI7PlayersNS1_IS3_EEEEEEE9constructB7v160006IS5_JRS5_EvEEvRS6_PT_DpOT0_, symObjAddr: 0x49C8, symBinAddr: 0x100005650, symSize: 0x34 }
  - { offsetInCU: 0x1AB36, offset: 0x1AB36, size: 0x8, addend: 0x0, symName: __ZNSt3__128__exception_guard_exceptionsINS_29_AllocatorDestroyRangeReverseINS_9allocatorINS_6vectorI7PlayersNS2_IS4_EEEEEEPS6_EEE10__completeB7v160006Ev, symObjAddr: 0x49FC, symBinAddr: 0x100005684, symSize: 0x1C }
  - { offsetInCU: 0x1AB5C, offset: 0x1AB5C, size: 0x8, addend: 0x0, symName: __ZNSt3__128__exception_guard_exceptionsINS_29_AllocatorDestroyRangeReverseINS_9allocatorINS_6vectorI7PlayersNS2_IS4_EEEEEEPS6_EEED1B7v160006Ev, symObjAddr: 0x4A18, symBinAddr: 0x1000056A0, symSize: 0x2C }
  - { offsetInCU: 0x1AB86, offset: 0x1AB86, size: 0x8, addend: 0x0, symName: __ZNSt3__128__exception_guard_exceptionsINS_29_AllocatorDestroyRangeReverseINS_9allocatorINS_6vectorI7PlayersNS2_IS4_EEEEEEPS6_EEEC1B7v160006ES9_, symObjAddr: 0x4A44, symBinAddr: 0x1000056CC, symSize: 0x34 }
  - { offsetInCU: 0x1ABBF, offset: 0x1ABBF, size: 0x8, addend: 0x0, symName: __ZNSt3__128__exception_guard_exceptionsINS_29_AllocatorDestroyRangeReverseINS_9allocatorINS_6vectorI7PlayersNS2_IS4_EEEEEEPS6_EEEC2B7v160006ES9_, symObjAddr: 0x4A78, symBinAddr: 0x100005700, symSize: 0x30 }
  - { offsetInCU: 0x1ABF8, offset: 0x1ABF8, size: 0x8, addend: 0x0, symName: __ZNSt3__129_AllocatorDestroyRangeReverseINS_9allocatorINS_6vectorI7PlayersNS1_IS3_EEEEEEPS5_EC2B7v160006ERS6_RS7_SA_, symObjAddr: 0x4AA8, symBinAddr: 0x100005730, symSize: 0x38 }
  - { offsetInCU: 0x1AC4F, offset: 0x1AC4F, size: 0x8, addend: 0x0, symName: __ZNSt3__19allocatorINS_6vectorI7PlayersNS0_IS2_EEEEE9constructB7v160006IS4_JRS4_EEEvPT_DpOT0_, symObjAddr: 0x4AE0, symBinAddr: 0x100005768, symSize: 0x30 }
  - { offsetInCU: 0x1ACA5, offset: 0x1ACA5, size: 0x8, addend: 0x0, symName: __ZNSt3__128__exception_guard_exceptionsINS_29_AllocatorDestroyRangeReverseINS_9allocatorINS_6vectorI7PlayersNS2_IS4_EEEEEEPS6_EEED2B7v160006Ev, symObjAddr: 0x4B10, symBinAddr: 0x100005798, symSize: 0x50 }
  - { offsetInCU: 0x1ACCF, offset: 0x1ACCF, size: 0x8, addend: 0x0, symName: __ZNKSt3__129_AllocatorDestroyRangeReverseINS_9allocatorINS_6vectorI7PlayersNS1_IS3_EEEEEEPS5_EclB7v160006Ev, symObjAddr: 0x4B60, symBinAddr: 0x1000057E8, symSize: 0x68 }
  - { offsetInCU: 0x1ACF5, offset: 0x1ACF5, size: 0x8, addend: 0x0, symName: __ZNSt3__116reverse_iteratorIPNS_6vectorI7PlayersNS_9allocatorIS2_EEEEEC1B7v160006ES6_, symObjAddr: 0x4C38, symBinAddr: 0x1000058C0, symSize: 0x34 }
  - { offsetInCU: 0x1AD2D, offset: 0x1AD2D, size: 0x8, addend: 0x0, symName: __ZNSt3__116allocator_traitsINS_9allocatorINS_6vectorI7PlayersNS1_IS3_EEEEEEE7destroyB7v160006IS5_vEEvRS6_PT_, symObjAddr: 0x4CB4, symBinAddr: 0x10000593C, symSize: 0x2C }
  - { offsetInCU: 0x1AD6A, offset: 0x1AD6A, size: 0x8, addend: 0x0, symName: __ZNSt3__116reverse_iteratorIPNS_6vectorI7PlayersNS_9allocatorIS2_EEEEEppB7v160006Ev, symObjAddr: 0x4D04, symBinAddr: 0x10000598C, symSize: 0x20 }
  - { offsetInCU: 0x1AD90, offset: 0x1AD90, size: 0x8, addend: 0x0, symName: __ZNKSt3__116reverse_iteratorIPNS_6vectorI7PlayersNS_9allocatorIS2_EEEEE4baseB7v160006Ev, symObjAddr: 0x4D24, symBinAddr: 0x1000059AC, symSize: 0x18 }
  - { offsetInCU: 0x1ADB6, offset: 0x1ADB6, size: 0x8, addend: 0x0, symName: __ZNSt3__19allocatorINS_6vectorI7PlayersNS0_IS2_EEEEE7destroyB7v160006EPS4_, symObjAddr: 0x4D3C, symBinAddr: 0x1000059C4, symSize: 0x28 }
  - { offsetInCU: 0x1ADEF, offset: 0x1ADEF, size: 0x8, addend: 0x0, symName: __ZNSt3__119__to_address_helperINS_16reverse_iteratorIPNS_6vectorI7PlayersNS_9allocatorIS3_EEEEEEvE6__callB7v160006ERKS8_, symObjAddr: 0x4D64, symBinAddr: 0x1000059EC, symSize: 0x38 }
  - { offsetInCU: 0x1AE12, offset: 0x1AE12, size: 0x8, addend: 0x0, symName: __ZNKSt3__116reverse_iteratorIPNS_6vectorI7PlayersNS_9allocatorIS2_EEEEEptB7v160006Ev, symObjAddr: 0x4D9C, symBinAddr: 0x100005A24, symSize: 0x24 }
  - { offsetInCU: 0x1AE38, offset: 0x1AE38, size: 0x8, addend: 0x0, symName: __ZNKSt3__116reverse_iteratorIPNS_6vectorI7PlayersNS_9allocatorIS2_EEEEEdeB7v160006Ev, symObjAddr: 0x4DC0, symBinAddr: 0x100005A48, symSize: 0x28 }
  - { offsetInCU: 0x1AE6C, offset: 0x1AE6C, size: 0x8, addend: 0x0, symName: __ZNSt3__116reverse_iteratorIPNS_6vectorI7PlayersNS_9allocatorIS2_EEEEEC2B7v160006ES6_, symObjAddr: 0x4DE8, symBinAddr: 0x100005A70, symSize: 0x28 }
  - { offsetInCU: 0x1AEA4, offset: 0x1AEA4, size: 0x8, addend: 0x0, symName: __ZNSt3__16vectorINS0_I7PlayersNS_9allocatorIS1_EEEENS2_IS4_EEE21_ConstructTransactionD2B7v160006Ev, symObjAddr: 0x4E10, symBinAddr: 0x100005A98, symSize: 0x20 }
  - { offsetInCU: 0x1AECE, offset: 0x1AECE, size: 0x8, addend: 0x0, symName: __ZNSt3__128__exception_guard_exceptionsINS_6vectorINS1_I7PlayersNS_9allocatorIS2_EEEENS3_IS5_EEE16__destroy_vectorEED2B7v160006Ev, symObjAddr: 0x4E30, symBinAddr: 0x100005AB8, symSize: 0x50 }
  - { offsetInCU: 0x1AEF8, offset: 0x1AEF8, size: 0x8, addend: 0x0, symName: __ZNSt3__16vectorINS0_I7PlayersNS_9allocatorIS1_EEEENS2_IS4_EEE16__destroy_vectorclB7v160006Ev, symObjAddr: 0x4E80, symBinAddr: 0x100005B08, symSize: 0x9C }
  - { offsetInCU: 0x1AF1E, offset: 0x1AF1E, size: 0x8, addend: 0x0, symName: __ZNKSt3__16vectorINS0_I7PlayersNS_9allocatorIS1_EEEENS2_IS4_EEE17__annotate_deleteB7v160006Ev, symObjAddr: 0x4F1C, symBinAddr: 0x100005BA4, symSize: 0xD4 }
  - { offsetInCU: 0x1AF44, offset: 0x1AF44, size: 0x8, addend: 0x0, symName: __ZNSt3__16vectorINS0_I7PlayersNS_9allocatorIS1_EEEENS2_IS4_EEE7__clearB7v160006Ev, symObjAddr: 0x5000, symBinAddr: 0x100005C88, symSize: 0x28 }
  - { offsetInCU: 0x1AF6A, offset: 0x1AF6A, size: 0x8, addend: 0x0, symName: __ZNSt3__116allocator_traitsINS_9allocatorINS_6vectorI7PlayersNS1_IS3_EEEEEEE10deallocateB7v160006ERS6_PS5_m, symObjAddr: 0x5028, symBinAddr: 0x100005CB0, symSize: 0x34 }
  - { offsetInCU: 0x1AFAC, offset: 0x1AFAC, size: 0x8, addend: 0x0, symName: __ZNSt3__16vectorINS0_I7PlayersNS_9allocatorIS1_EEEENS2_IS4_EEE22__base_destruct_at_endB7v160006EPS4_, symObjAddr: 0x505C, symBinAddr: 0x100005CE4, symSize: 0x8C }
  - { offsetInCU: 0x1AFF0, offset: 0x1AFF0, size: 0x8, addend: 0x0, symName: __ZNSt3__19allocatorINS_6vectorI7PlayersNS0_IS2_EEEEE10deallocateB7v160006EPS4_m, symObjAddr: 0x50E8, symBinAddr: 0x100005D70, symSize: 0x44 }
  - { offsetInCU: 0x1B032, offset: 0x1B032, size: 0x8, addend: 0x0, symName: __ZNSt3__16vectorI7PlayersNS_9allocatorIS1_EEED2B7v160006Ev, symObjAddr: 0x512C, symBinAddr: 0x100005DB4, symSize: 0x44 }
  - { offsetInCU: 0x1B05C, offset: 0x1B05C, size: 0x8, addend: 0x0, symName: __ZNSt3__18ios_base4setfB7v160006Ejj, symObjAddr: 0x5170, symBinAddr: 0x100005DF8, symSize: 0x5C }
  - { offsetInCU: 0x1B0B1, offset: 0x1B0B1, size: 0x8, addend: 0x0, symName: __ZNSt3__18ios_base6unsetfB7v160006Ej, symObjAddr: 0x51CC, symBinAddr: 0x100005E54, symSize: 0x28 }
  - { offsetInCU: 0x1B0E8, offset: 0x1B0E8, size: 0x8, addend: 0x0, symName: __ZNSt3__18__iom_t5C1B7v160006Ei, symObjAddr: 0x51F4, symBinAddr: 0x100005E7C, symSize: 0x34 }
  - { offsetInCU: 0x1B120, offset: 0x1B120, size: 0x8, addend: 0x0, symName: __ZNSt3__18__iom_t5C2B7v160006Ei, symObjAddr: 0x5228, symBinAddr: 0x100005EB0, symSize: 0x20 }
  - { offsetInCU: 0x1B158, offset: 0x1B158, size: 0x8, addend: 0x0, symName: __ZNSt3__18__iom_t6C1B7v160006Ei, symObjAddr: 0x5248, symBinAddr: 0x100005ED0, symSize: 0x34 }
  - { offsetInCU: 0x1B190, offset: 0x1B190, size: 0x8, addend: 0x0, symName: __ZNSt3__18__iom_t6C2B7v160006Ei, symObjAddr: 0x527C, symBinAddr: 0x100005F04, symSize: 0x20 }
  - { offsetInCU: 0x1B1C8, offset: 0x1B1C8, size: 0x8, addend: 0x0, symName: __ZNSt3__114basic_ofstreamIcNS_11char_traitsIcEEED2Ev, symObjAddr: 0x529C, symBinAddr: 0x100005F24, symSize: 0x64 }
  - { offsetInCU: 0x1B202, offset: 0x1B202, size: 0x8, addend: 0x0, symName: __ZTv0_n24_NSt3__114basic_ofstreamIcNS_11char_traitsIcEEED1Ev, symObjAddr: 0x5300, symBinAddr: 0x100005F88, symSize: 0x28 }
  - { offsetInCU: 0x1B219, offset: 0x1B219, size: 0x8, addend: 0x0, symName: __ZNSt3__112basic_stringIcNS_11char_traitsIcEENS_9allocatorIcEEEC2B7v160006Ev, symObjAddr: 0x5328, symBinAddr: 0x100005FB0, symSize: 0x54 }
  - { offsetInCU: 0x1B249, offset: 0x1B249, size: 0x8, addend: 0x0, symName: __ZNSt3__117__compressed_pairINS_12basic_stringIcNS_11char_traitsIcEENS_9allocatorIcEEE5__repES5_EC1B7v160006INS_18__default_init_tagESA_EEOT_OT0_, symObjAddr: 0x537C, symBinAddr: 0x100006004, symSize: 0x3C }
  - { offsetInCU: 0x1B2A1, offset: 0x1B2A1, size: 0x8, addend: 0x0, symName: __ZNSt3__112basic_stringIcNS_11char_traitsIcEENS_9allocatorIcEEE14__default_initB7v160006Ev, symObjAddr: 0x53C8, symBinAddr: 0x100006050, symSize: 0x40 }
  - { offsetInCU: 0x1B2C7, offset: 0x1B2C7, size: 0x8, addend: 0x0, symName: __ZNSt3__117__compressed_pairINS_12basic_stringIcNS_11char_traitsIcEENS_9allocatorIcEEE5__repES5_EC2B7v160006INS_18__default_init_tagESA_EEOT_OT0_, symObjAddr: 0x5408, symBinAddr: 0x100006090, symSize: 0x3C }
  - { offsetInCU: 0x1B31F, offset: 0x1B31F, size: 0x8, addend: 0x0, symName: __ZNSt3__122__compressed_pair_elemINS_12basic_stringIcNS_11char_traitsIcEENS_9allocatorIcEEE5__repELi0ELb0EEC2B7v160006ENS_18__default_init_tagE, symObjAddr: 0x5444, symBinAddr: 0x1000060CC, symSize: 0x14 }
  - { offsetInCU: 0x1B353, offset: 0x1B353, size: 0x8, addend: 0x0, symName: __ZNSt3__122__compressed_pair_elemINS_9allocatorIcEELi1ELb1EEC2B7v160006ENS_18__default_init_tagE, symObjAddr: 0x5458, symBinAddr: 0x1000060E0, symSize: 0x2C }
  - { offsetInCU: 0x1B387, offset: 0x1B387, size: 0x8, addend: 0x0, symName: __ZNSt3__19allocatorIcEC2B7v160006Ev, symObjAddr: 0x5484, symBinAddr: 0x10000610C, symSize: 0x2C }
  - { offsetInCU: 0x1B3B1, offset: 0x1B3B1, size: 0x8, addend: 0x0, symName: __ZNSt3__116__non_trivial_ifILb1ENS_9allocatorIcEEEC2B7v160006Ev, symObjAddr: 0x54B0, symBinAddr: 0x100006138, symSize: 0x14 }
  - { offsetInCU: 0x1B3DB, offset: 0x1B3DB, size: 0x8, addend: 0x0, symName: __ZNSt3__117__compressed_pairINS_12basic_stringIcNS_11char_traitsIcEENS_9allocatorIcEEE5__repES5_E5firstB7v160006Ev, symObjAddr: 0x54C4, symBinAddr: 0x10000614C, symSize: 0x24 }
  - { offsetInCU: 0x1B401, offset: 0x1B401, size: 0x8, addend: 0x0, symName: __ZNSt3__122__compressed_pair_elemINS_12basic_stringIcNS_11char_traitsIcEENS_9allocatorIcEEE5__repELi0ELb0EE5__getB7v160006Ev, symObjAddr: 0x54E8, symBinAddr: 0x100006170, symSize: 0x14 }
  - { offsetInCU: 0x1B427, offset: 0x1B427, size: 0x8, addend: 0x0, symName: __ZNSt3__112basic_stringIcNS_11char_traitsIcEENS_9allocatorIcEEE13__move_assignB7v160006ERS5_NS_17integral_constantIbLb1EEE, symObjAddr: 0x54FC, symBinAddr: 0x100006184, symSize: 0xC8 }
  - { offsetInCU: 0x1B46A, offset: 0x1B46A, size: 0x8, addend: 0x0, symName: __ZNKSt3__112basic_stringIcNS_11char_traitsIcEENS_9allocatorIcEEE9__is_longB7v160006Ev, symObjAddr: 0x55C4, symBinAddr: 0x10000624C, symSize: 0x38 }
  - { offsetInCU: 0x1B490, offset: 0x1B490, size: 0x8, addend: 0x0, symName: __ZNSt3__116allocator_traitsINS_9allocatorIcEEE10deallocateB7v160006ERS2_Pcm, symObjAddr: 0x55FC, symBinAddr: 0x100006284, symSize: 0x34 }
  - { offsetInCU: 0x1B4D2, offset: 0x1B4D2, size: 0x8, addend: 0x0, symName: __ZNSt3__112basic_stringIcNS_11char_traitsIcEENS_9allocatorIcEEE7__allocB7v160006Ev, symObjAddr: 0x5630, symBinAddr: 0x1000062B8, symSize: 0x24 }
  - { offsetInCU: 0x1B4F8, offset: 0x1B4F8, size: 0x8, addend: 0x0, symName: __ZNSt3__112basic_stringIcNS_11char_traitsIcEENS_9allocatorIcEEE18__get_long_pointerB7v160006Ev, symObjAddr: 0x5654, symBinAddr: 0x1000062DC, symSize: 0x28 }
  - { offsetInCU: 0x1B51E, offset: 0x1B51E, size: 0x8, addend: 0x0, symName: __ZNKSt3__112basic_stringIcNS_11char_traitsIcEENS_9allocatorIcEEE14__get_long_capB7v160006Ev, symObjAddr: 0x567C, symBinAddr: 0x100006304, symSize: 0x30 }
  - { offsetInCU: 0x1B544, offset: 0x1B544, size: 0x8, addend: 0x0, symName: __ZNSt3__112basic_stringIcNS_11char_traitsIcEENS_9allocatorIcEEE19__move_assign_allocB7v160006ERS5_, symObjAddr: 0x56AC, symBinAddr: 0x100006334, symSize: 0x2C }
  - { offsetInCU: 0x1B579, offset: 0x1B579, size: 0x8, addend: 0x0, symName: __ZNSt3__112basic_stringIcNS_11char_traitsIcEENS_9allocatorIcEEE16__set_short_sizeB7v160006Em, symObjAddr: 0x56D8, symBinAddr: 0x100006360, symSize: 0x78 }
  - { offsetInCU: 0x1B5AE, offset: 0x1B5AE, size: 0x8, addend: 0x0, symName: __ZNSt3__111char_traitsIcE6assignERcRKc, symObjAddr: 0x5750, symBinAddr: 0x1000063D8, symSize: 0x24 }
  - { offsetInCU: 0x1B5DF, offset: 0x1B5DF, size: 0x8, addend: 0x0, symName: __ZNSt3__112basic_stringIcNS_11char_traitsIcEENS_9allocatorIcEEE19__get_short_pointerB7v160006Ev, symObjAddr: 0x5774, symBinAddr: 0x1000063FC, symSize: 0x28 }
  - { offsetInCU: 0x1B605, offset: 0x1B605, size: 0x8, addend: 0x0, symName: __ZNKSt3__117__compressed_pairINS_12basic_stringIcNS_11char_traitsIcEENS_9allocatorIcEEE5__repES5_E5firstB7v160006Ev, symObjAddr: 0x579C, symBinAddr: 0x100006424, symSize: 0x24 }
  - { offsetInCU: 0x1B62B, offset: 0x1B62B, size: 0x8, addend: 0x0, symName: __ZNKSt3__122__compressed_pair_elemINS_12basic_stringIcNS_11char_traitsIcEENS_9allocatorIcEEE5__repELi0ELb0EE5__getB7v160006Ev, symObjAddr: 0x57C0, symBinAddr: 0x100006448, symSize: 0x14 }
  - { offsetInCU: 0x1B651, offset: 0x1B651, size: 0x8, addend: 0x0, symName: __ZNSt3__19allocatorIcE10deallocateB7v160006EPcm, symObjAddr: 0x57D4, symBinAddr: 0x10000645C, symSize: 0x40 }
  - { offsetInCU: 0x1B693, offset: 0x1B693, size: 0x8, addend: 0x0, symName: __ZNSt3__117__compressed_pairINS_12basic_stringIcNS_11char_traitsIcEENS_9allocatorIcEEE5__repES5_E6secondB7v160006Ev, symObjAddr: 0x5814, symBinAddr: 0x10000649C, symSize: 0x24 }
  - { offsetInCU: 0x1B6B9, offset: 0x1B6B9, size: 0x8, addend: 0x0, symName: __ZNSt3__122__compressed_pair_elemINS_9allocatorIcEELi1ELb1EE5__getB7v160006Ev, symObjAddr: 0x5838, symBinAddr: 0x1000064C0, symSize: 0x14 }
  - { offsetInCU: 0x1B6DF, offset: 0x1B6DF, size: 0x8, addend: 0x0, symName: __ZNSt3__112basic_stringIcNS_11char_traitsIcEENS_9allocatorIcEEE19__move_assign_allocB7v160006ERS5_NS_17integral_constantIbLb1EEE, symObjAddr: 0x584C, symBinAddr: 0x1000064D4, symSize: 0x38 }
  - { offsetInCU: 0x1B720, offset: 0x1B720, size: 0x8, addend: 0x0, symName: __ZNSt3__114pointer_traitsIPcE10pointer_toB7v160006ERc, symObjAddr: 0x5884, symBinAddr: 0x10000650C, symSize: 0x14 }
  - { offsetInCU: 0x1B743, offset: 0x1B743, size: 0x8, addend: 0x0, symName: __ZNSt3__16vectorI10ContestantNS_9allocatorIS1_EEEC2B7v160006Ev, symObjAddr: 0x5898, symBinAddr: 0x100006520, symSize: 0x58 }
  - { offsetInCU: 0x1B76D, offset: 0x1B76D, size: 0x8, addend: 0x0, symName: __ZNSt3__117__compressed_pairIP10ContestantNS_9allocatorIS1_EEEC1B7v160006IDnNS_18__default_init_tagEEEOT_OT0_, symObjAddr: 0x58F0, symBinAddr: 0x100006578, symSize: 0x3C }
  - { offsetInCU: 0x1B7C5, offset: 0x1B7C5, size: 0x8, addend: 0x0, symName: __ZNSt3__117__compressed_pairIP10ContestantNS_9allocatorIS1_EEEC2B7v160006IDnNS_18__default_init_tagEEEOT_OT0_, symObjAddr: 0x593C, symBinAddr: 0x1000065C4, symSize: 0x40 }
  - { offsetInCU: 0x1B81D, offset: 0x1B81D, size: 0x8, addend: 0x0, symName: __ZNSt3__122__compressed_pair_elemIP10ContestantLi0ELb0EEC2B7v160006IDnvEEOT_, symObjAddr: 0x597C, symBinAddr: 0x100006604, symSize: 0x1C }
  - { offsetInCU: 0x1B85F, offset: 0x1B85F, size: 0x8, addend: 0x0, symName: __ZNSt3__122__compressed_pair_elemINS_9allocatorI10ContestantEELi1ELb1EEC2B7v160006ENS_18__default_init_tagE, symObjAddr: 0x5998, symBinAddr: 0x100006620, symSize: 0x2C }
  - { offsetInCU: 0x1B893, offset: 0x1B893, size: 0x8, addend: 0x0, symName: __ZNSt3__19allocatorI10ContestantEC2B7v160006Ev, symObjAddr: 0x59C4, symBinAddr: 0x10000664C, symSize: 0x2C }
  - { offsetInCU: 0x1B8BD, offset: 0x1B8BD, size: 0x8, addend: 0x0, symName: __ZNSt3__116__non_trivial_ifILb1ENS_9allocatorI10ContestantEEEC2B7v160006Ev, symObjAddr: 0x59F0, symBinAddr: 0x100006678, symSize: 0x14 }
  - { offsetInCU: 0x1B8E7, offset: 0x1B8E7, size: 0x8, addend: 0x0, symName: __ZNSt3__16vectorI10ContestantNS_9allocatorIS1_EEED2B7v160006Ev, symObjAddr: 0x5A04, symBinAddr: 0x10000668C, symSize: 0x44 }
  - { offsetInCU: 0x1B911, offset: 0x1B911, size: 0x8, addend: 0x0, symName: __ZNSt3__16vectorI10ContestantNS_9allocatorIS1_EEE16__destroy_vectorC1ERS4_, symObjAddr: 0x5A48, symBinAddr: 0x1000066D0, symSize: 0x34 }
  - { offsetInCU: 0x1B94A, offset: 0x1B94A, size: 0x8, addend: 0x0, symName: __ZNSt3__16vectorI10ContestantNS_9allocatorIS1_EEE16__destroy_vectorclB7v160006Ev, symObjAddr: 0x5A7C, symBinAddr: 0x100006704, symSize: 0x9C }
  - { offsetInCU: 0x1B970, offset: 0x1B970, size: 0x8, addend: 0x0, symName: __ZNSt3__16vectorI10ContestantNS_9allocatorIS1_EEE16__destroy_vectorC2ERS4_, symObjAddr: 0x5B18, symBinAddr: 0x1000067A0, symSize: 0x20 }
  - { offsetInCU: 0x1B9A9, offset: 0x1B9A9, size: 0x8, addend: 0x0, symName: __ZNKSt3__16vectorI10ContestantNS_9allocatorIS1_EEE17__annotate_deleteB7v160006Ev, symObjAddr: 0x5B38, symBinAddr: 0x1000067C0, symSize: 0xD4 }
  - { offsetInCU: 0x1B9CF, offset: 0x1B9CF, size: 0x8, addend: 0x0, symName: __ZNSt3__16vectorI10ContestantNS_9allocatorIS1_EEE7__clearB7v160006Ev, symObjAddr: 0x5C1C, symBinAddr: 0x1000068A4, symSize: 0x28 }
  - { offsetInCU: 0x1B9F5, offset: 0x1B9F5, size: 0x8, addend: 0x0, symName: __ZNSt3__116allocator_traitsINS_9allocatorI10ContestantEEE10deallocateB7v160006ERS3_PS2_m, symObjAddr: 0x5C44, symBinAddr: 0x1000068CC, symSize: 0x34 }
  - { offsetInCU: 0x1BA37, offset: 0x1BA37, size: 0x8, addend: 0x0, symName: __ZNSt3__16vectorI10ContestantNS_9allocatorIS1_EEE7__allocB7v160006Ev, symObjAddr: 0x5C78, symBinAddr: 0x100006900, symSize: 0x28 }
  - { offsetInCU: 0x1BA5D, offset: 0x1BA5D, size: 0x8, addend: 0x0, symName: __ZNKSt3__16vectorI10ContestantNS_9allocatorIS1_EEE8capacityB7v160006Ev, symObjAddr: 0x5CA0, symBinAddr: 0x100006928, symSize: 0x40 }
  - { offsetInCU: 0x1BA83, offset: 0x1BA83, size: 0x8, addend: 0x0, symName: __ZNKSt3__16vectorI10ContestantNS_9allocatorIS1_EEE31__annotate_contiguous_containerB7v160006EPKvS6_S6_S6_, symObjAddr: 0x5CE0, symBinAddr: 0x100006968, symSize: 0x20 }
  - { offsetInCU: 0x1BAD9, offset: 0x1BAD9, size: 0x8, addend: 0x0, symName: __ZNKSt3__16vectorI10ContestantNS_9allocatorIS1_EEE4dataB7v160006Ev, symObjAddr: 0x5D00, symBinAddr: 0x100006988, symSize: 0x28 }
  - { offsetInCU: 0x1BAFF, offset: 0x1BAFF, size: 0x8, addend: 0x0, symName: __ZNSt3__16vectorI10ContestantNS_9allocatorIS1_EEE22__base_destruct_at_endB7v160006EPS1_, symObjAddr: 0x5D3C, symBinAddr: 0x1000069C4, symSize: 0x8C }
  - { offsetInCU: 0x1BB43, offset: 0x1BB43, size: 0x8, addend: 0x0, symName: __ZNSt3__116allocator_traitsINS_9allocatorI10ContestantEEE7destroyB7v160006IS2_vEEvRS3_PT_, symObjAddr: 0x5DC8, symBinAddr: 0x100006A50, symSize: 0x2C }
  - { offsetInCU: 0x1BB80, offset: 0x1BB80, size: 0x8, addend: 0x0, symName: __ZNSt3__19allocatorI10ContestantE7destroyB7v160006EPS1_, symObjAddr: 0x5DF4, symBinAddr: 0x100006A7C, symSize: 0x28 }
  - { offsetInCU: 0x1BBB4, offset: 0x1BBB4, size: 0x8, addend: 0x0, symName: __ZNSt3__19allocatorI10ContestantE10deallocateB7v160006EPS1_m, symObjAddr: 0x5E1C, symBinAddr: 0x100006AA4, symSize: 0x44 }
  - { offsetInCU: 0x1BBF6, offset: 0x1BBF6, size: 0x8, addend: 0x0, symName: __ZNSt3__117__compressed_pairIP10ContestantNS_9allocatorIS1_EEE6secondB7v160006Ev, symObjAddr: 0x5E60, symBinAddr: 0x100006AE8, symSize: 0x24 }
  - { offsetInCU: 0x1BC1C, offset: 0x1BC1C, size: 0x8, addend: 0x0, symName: __ZNSt3__122__compressed_pair_elemINS_9allocatorI10ContestantEELi1ELb1EE5__getB7v160006Ev, symObjAddr: 0x5E84, symBinAddr: 0x100006B0C, symSize: 0x14 }
  - { offsetInCU: 0x1BC42, offset: 0x1BC42, size: 0x8, addend: 0x0, symName: __ZNKSt3__16vectorI10ContestantNS_9allocatorIS1_EEE9__end_capB7v160006Ev, symObjAddr: 0x5E98, symBinAddr: 0x100006B20, symSize: 0x28 }
  - { offsetInCU: 0x1BC68, offset: 0x1BC68, size: 0x8, addend: 0x0, symName: __ZNKSt3__117__compressed_pairIP10ContestantNS_9allocatorIS1_EEE5firstB7v160006Ev, symObjAddr: 0x5EC0, symBinAddr: 0x100006B48, symSize: 0x24 }
  - { offsetInCU: 0x1BC8E, offset: 0x1BC8E, size: 0x8, addend: 0x0, symName: __ZNKSt3__122__compressed_pair_elemIP10ContestantLi0ELb0EE5__getB7v160006Ev, symObjAddr: 0x5EE4, symBinAddr: 0x100006B6C, symSize: 0x14 }
  - { offsetInCU: 0x1BCB4, offset: 0x1BCB4, size: 0x8, addend: 0x0, symName: __ZNSt3__19basic_iosIcNS_11char_traitsIcEEEC2B7v160006Ev, symObjAddr: 0x5EF8, symBinAddr: 0x100006B80, symSize: 0x44 }
  - { offsetInCU: 0x1BCDE, offset: 0x1BCDE, size: 0x8, addend: 0x0, symName: __ZNSt3__113basic_istreamIcNS_11char_traitsIcEEEC2B7v160006EPNS_15basic_streambufIcS2_EE, symObjAddr: 0x5F3C, symBinAddr: 0x100006BC4, symSize: 0x64 }
  - { offsetInCU: 0x1BD23, offset: 0x1BD23, size: 0x8, addend: 0x0, symName: __ZNSt3__18ios_baseC2B7v160006Ev, symObjAddr: 0x5FA0, symBinAddr: 0x100006C28, symSize: 0x24 }
  - { offsetInCU: 0x1BD4D, offset: 0x1BD4D, size: 0x8, addend: 0x0, symName: __ZNSt3__19basic_iosIcNS_11char_traitsIcEEE4initB7v160006EPNS_15basic_streambufIcS2_EE, symObjAddr: 0x5FC4, symBinAddr: 0x100006C4C, symSize: 0x44 }
  - { offsetInCU: 0x1BD84, offset: 0x1BD84, size: 0x8, addend: 0x0, symName: __ZNSt3__111char_traitsIcE3eofEv, symObjAddr: 0x6008, symBinAddr: 0x100006C90, symSize: 0x8 }
  - { offsetInCU: 0x1BD98, offset: 0x1BD98, size: 0x8, addend: 0x0, symName: __ZNKSt3__19basic_iosIcNS_11char_traitsIcEEE4failB7v160006Ev, symObjAddr: 0x6010, symBinAddr: 0x100006C98, symSize: 0x28 }
  - { offsetInCU: 0x1BDBE, offset: 0x1BDBE, size: 0x8, addend: 0x0, symName: __ZNKSt3__18ios_base4failB7v160006Ev, symObjAddr: 0x6038, symBinAddr: 0x100006CC0, symSize: 0x28 }
  - { offsetInCU: 0x1BDE6, offset: 0x1BDE6, size: 0x8, addend: 0x0, symName: __ZNSt3__111char_traitsIcE6lengthEPKc, symObjAddr: 0x624C, symBinAddr: 0x100006ED4, symSize: 0x34 }
  - { offsetInCU: 0x1BE27, offset: 0x1BE27, size: 0x8, addend: 0x0, symName: __ZNKSt3__113basic_ostreamIcNS_11char_traitsIcEEE6sentrycvbB7v160006Ev, symObjAddr: 0x6280, symBinAddr: 0x100006F08, symSize: 0x1C }
  - { offsetInCU: 0x1BE4D, offset: 0x1BE4D, size: 0x8, addend: 0x0, symName: __ZNSt3__119ostreambuf_iteratorIcNS_11char_traitsIcEEEC1B7v160006ERNS_13basic_ostreamIcS2_EE, symObjAddr: 0x64DC, symBinAddr: 0x100007164, symSize: 0x34 }
  - { offsetInCU: 0x1BE85, offset: 0x1BE85, size: 0x8, addend: 0x0, symName: __ZNKSt3__18ios_base5flagsB7v160006Ev, symObjAddr: 0x6510, symBinAddr: 0x100007198, symSize: 0x18 }
  - { offsetInCU: 0x1BEAD, offset: 0x1BEAD, size: 0x8, addend: 0x0, symName: __ZNKSt3__19basic_iosIcNS_11char_traitsIcEEE4fillB7v160006Ev, symObjAddr: 0x6528, symBinAddr: 0x1000071B0, symSize: 0x64 }
  - { offsetInCU: 0x1BED5, offset: 0x1BED5, size: 0x8, addend: 0x0, symName: __ZNKSt3__119ostreambuf_iteratorIcNS_11char_traitsIcEEE6failedB7v160006Ev, symObjAddr: 0x658C, symBinAddr: 0x100007214, symSize: 0x24 }
  - { offsetInCU: 0x1BEFB, offset: 0x1BEFB, size: 0x8, addend: 0x0, symName: __ZNSt3__19basic_iosIcNS_11char_traitsIcEEE8setstateB7v160006Ej, symObjAddr: 0x65B0, symBinAddr: 0x100007238, symSize: 0x2C }
  - { offsetInCU: 0x1BF30, offset: 0x1BF30, size: 0x8, addend: 0x0, symName: __ZNKSt3__18ios_base5widthB7v160006Ev, symObjAddr: 0x65DC, symBinAddr: 0x100007264, symSize: 0x18 }
  - { offsetInCU: 0x1BF58, offset: 0x1BF58, size: 0x8, addend: 0x0, symName: __ZNSt3__115basic_streambufIcNS_11char_traitsIcEEE5sputnB7v160006EPKcl, symObjAddr: 0x65F4, symBinAddr: 0x10000727C, symSize: 0x3C }
  - { offsetInCU: 0x1BF9A, offset: 0x1BF9A, size: 0x8, addend: 0x0, symName: __ZNSt3__112basic_stringIcNS_11char_traitsIcEENS_9allocatorIcEEEC1B7v160006Emc, symObjAddr: 0x6630, symBinAddr: 0x1000072B8, symSize: 0x3C }
  - { offsetInCU: 0x1BFE2, offset: 0x1BFE2, size: 0x8, addend: 0x0, symName: __ZNSt3__112basic_stringIcNS_11char_traitsIcEENS_9allocatorIcEEE4dataB7v160006Ev, symObjAddr: 0x666C, symBinAddr: 0x1000072F4, symSize: 0x28 }
  - { offsetInCU: 0x1C008, offset: 0x1C008, size: 0x8, addend: 0x0, symName: __ZNSt3__18ios_base5widthB7v160006El, symObjAddr: 0x6694, symBinAddr: 0x10000731C, symSize: 0x2C }
  - { offsetInCU: 0x1C04E, offset: 0x1C04E, size: 0x8, addend: 0x0, symName: __ZNSt3__112basic_stringIcNS_11char_traitsIcEENS_9allocatorIcEEEC2B7v160006Emc, symObjAddr: 0x66C0, symBinAddr: 0x100007348, symSize: 0x54 }
  - { offsetInCU: 0x1C096, offset: 0x1C096, size: 0x8, addend: 0x0, symName: __ZNSt3__112basic_stringIcNS_11char_traitsIcEENS_9allocatorIcEEE13__get_pointerB7v160006Ev, symObjAddr: 0x6728, symBinAddr: 0x1000073B0, symSize: 0x54 }
  - { offsetInCU: 0x1C0BC, offset: 0x1C0BC, size: 0x8, addend: 0x0, symName: __ZNSt3__119ostreambuf_iteratorIcNS_11char_traitsIcEEEC2B7v160006ERNS_13basic_ostreamIcS2_EE, symObjAddr: 0x677C, symBinAddr: 0x100007404, symSize: 0x54 }
  - { offsetInCU: 0x1C0F4, offset: 0x1C0F4, size: 0x8, addend: 0x0, symName: __ZNKSt3__19basic_iosIcNS_11char_traitsIcEEE5rdbufB7v160006Ev, symObjAddr: 0x67D0, symBinAddr: 0x100007458, symSize: 0x24 }
  - { offsetInCU: 0x1C11C, offset: 0x1C11C, size: 0x8, addend: 0x0, symName: __ZNKSt3__18ios_base5rdbufB7v160006Ev, symObjAddr: 0x67F4, symBinAddr: 0x10000747C, symSize: 0x18 }
  - { offsetInCU: 0x1C142, offset: 0x1C142, size: 0x8, addend: 0x0, symName: __ZNSt3__111char_traitsIcE11eq_int_typeEii, symObjAddr: 0x680C, symBinAddr: 0x100007494, symSize: 0x28 }
  - { offsetInCU: 0x1C173, offset: 0x1C173, size: 0x8, addend: 0x0, symName: __ZNKSt3__19basic_iosIcNS_11char_traitsIcEEE5widenB7v160006Ec, symObjAddr: 0x6834, symBinAddr: 0x1000074BC, symSize: 0x84 }
  - { offsetInCU: 0x1C1E1, offset: 0x1C1E1, size: 0x8, addend: 0x0, symName: __ZNKSt3__15ctypeIcE5widenB7v160006Ec, symObjAddr: 0x68E4, symBinAddr: 0x10000756C, symSize: 0x38 }
  - { offsetInCU: 0x1C216, offset: 0x1C216, size: 0x8, addend: 0x0, symName: __ZNSt3__18ios_base8setstateB7v160006Ej, symObjAddr: 0x691C, symBinAddr: 0x1000075A4, symSize: 0x34 }
  - { offsetInCU: 0x1C26B, offset: 0x1C26B, size: 0x8, addend: 0x0, symName: __ZNKSt3__113basic_istreamIcNS_11char_traitsIcEEE6sentrycvbB7v160006Ev, symObjAddr: 0x6974, symBinAddr: 0x1000075FC, symSize: 0x1C }
  - { offsetInCU: 0x1C291, offset: 0x1C291, size: 0x8, addend: 0x0, symName: __ZNSt3__112basic_stringIcNS_11char_traitsIcEENS_9allocatorIcEEE5clearB7v160006Ev, symObjAddr: 0x6990, symBinAddr: 0x100007618, symSize: 0x88 }
  - { offsetInCU: 0x1C2B9, offset: 0x1C2B9, size: 0x8, addend: 0x0, symName: __ZNSt3__115basic_streambufIcNS_11char_traitsIcEEE6sbumpcB7v160006Ev, symObjAddr: 0x6A18, symBinAddr: 0x1000076A0, symSize: 0x78 }
  - { offsetInCU: 0x1C2DF, offset: 0x1C2DF, size: 0x8, addend: 0x0, symName: __ZNSt3__111char_traitsIcE12to_char_typeEi, symObjAddr: 0x6A90, symBinAddr: 0x100007718, symSize: 0x18 }
  - { offsetInCU: 0x1C302, offset: 0x1C302, size: 0x8, addend: 0x0, symName: __ZNSt3__111char_traitsIcE2eqEcc, symObjAddr: 0x6AA8, symBinAddr: 0x100007730, symSize: 0x28 }
  - { offsetInCU: 0x1C333, offset: 0x1C333, size: 0x8, addend: 0x0, symName: __ZNKSt3__112basic_stringIcNS_11char_traitsIcEENS_9allocatorIcEEE8max_sizeB7v160006Ev, symObjAddr: 0x6AD0, symBinAddr: 0x100007758, symSize: 0xAC }
  - { offsetInCU: 0x1C385, offset: 0x1C385, size: 0x8, addend: 0x0, symName: __ZNSt3__18ios_base18__setstate_nothrowB7v160006Ej, symObjAddr: 0x6B7C, symBinAddr: 0x100007804, symSize: 0x64 }
  - { offsetInCU: 0x1C3BA, offset: 0x1C3BA, size: 0x8, addend: 0x0, symName: __ZNKSt3__19basic_iosIcNS_11char_traitsIcEEE10exceptionsB7v160006Ev, symObjAddr: 0x6BE0, symBinAddr: 0x100007868, symSize: 0x24 }
  - { offsetInCU: 0x1C3E0, offset: 0x1C3E0, size: 0x8, addend: 0x0, symName: __ZNSt3__112basic_stringIcNS_11char_traitsIcEENS_9allocatorIcEEE15__set_long_sizeB7v160006Em, symObjAddr: 0x6C14, symBinAddr: 0x10000789C, symSize: 0x38 }
  - { offsetInCU: 0x1C415, offset: 0x1C415, size: 0x8, addend: 0x0, symName: __ZNSt3__111char_traitsIcE11to_int_typeEc, symObjAddr: 0x6C4C, symBinAddr: 0x1000078D4, symSize: 0x14 }
  - { offsetInCU: 0x1C442, offset: 0x1C442, size: 0x8, addend: 0x0, symName: __ZNSt3__116allocator_traitsINS_9allocatorIcEEE8max_sizeB7v160006IS2_vEEmRKS2_, symObjAddr: 0x6C60, symBinAddr: 0x1000078E8, symSize: 0x24 }
  - { offsetInCU: 0x1C470, offset: 0x1C470, size: 0x8, addend: 0x0, symName: __ZNKSt3__112basic_stringIcNS_11char_traitsIcEENS_9allocatorIcEEE7__allocB7v160006Ev, symObjAddr: 0x6C84, symBinAddr: 0x10000790C, symSize: 0x24 }
  - { offsetInCU: 0x1C496, offset: 0x1C496, size: 0x8, addend: 0x0, symName: __ZNSt3__114numeric_limitsImE3maxB7v160006Ev, symObjAddr: 0x6CA8, symBinAddr: 0x100007930, symSize: 0x14 }
  - { offsetInCU: 0x1C4AA, offset: 0x1C4AA, size: 0x8, addend: 0x0, symName: __ZNKSt3__19allocatorIcE8max_sizeB7v160006Ev, symObjAddr: 0x6CBC, symBinAddr: 0x100007944, symSize: 0x14 }
  - { offsetInCU: 0x1C4D0, offset: 0x1C4D0, size: 0x8, addend: 0x0, symName: __ZNKSt3__117__compressed_pairINS_12basic_stringIcNS_11char_traitsIcEENS_9allocatorIcEEE5__repES5_E6secondB7v160006Ev, symObjAddr: 0x6CD0, symBinAddr: 0x100007958, symSize: 0x24 }
  - { offsetInCU: 0x1C4F6, offset: 0x1C4F6, size: 0x8, addend: 0x0, symName: __ZNKSt3__122__compressed_pair_elemINS_9allocatorIcEELi1ELb1EE5__getB7v160006Ev, symObjAddr: 0x6CF4, symBinAddr: 0x10000797C, symSize: 0x14 }
  - { offsetInCU: 0x1C51C, offset: 0x1C51C, size: 0x8, addend: 0x0, symName: __ZNSt3__123__libcpp_numeric_limitsImLb1EE3maxB7v160006Ev, symObjAddr: 0x6D08, symBinAddr: 0x100007990, symSize: 0x8 }
  - { offsetInCU: 0x1C530, offset: 0x1C530, size: 0x8, addend: 0x0, symName: __ZNKSt3__18ios_base10exceptionsB7v160006Ev, symObjAddr: 0x6D10, symBinAddr: 0x100007998, symSize: 0x18 }
  - { offsetInCU: 0x1C558, offset: 0x1C558, size: 0x8, addend: 0x0, symName: __ZNKSt3__18ios_base3eofB7v160006Ev, symObjAddr: 0x6D28, symBinAddr: 0x1000079B0, symSize: 0x24 }
  - { offsetInCU: 0x1C580, offset: 0x1C580, size: 0x8, addend: 0x0, symName: __ZNSt3__16vectorI10ContestantNS_9allocatorIS1_EEE9__end_capB7v160006Ev, symObjAddr: 0x6D4C, symBinAddr: 0x1000079D4, symSize: 0x28 }
  - { offsetInCU: 0x1C5A6, offset: 0x1C5A6, size: 0x8, addend: 0x0, symName: __ZNSt3__16vectorI10ContestantNS_9allocatorIS1_EEE22__construct_one_at_endB7v160006IJRKS1_EEEvDpOT_, symObjAddr: 0x6D74, symBinAddr: 0x1000079FC, symSize: 0x90 }
  - { offsetInCU: 0x1C5F5, offset: 0x1C5F5, size: 0x8, addend: 0x0, symName: __ZNSt3__16vectorI10ContestantNS_9allocatorIS1_EEE21__push_back_slow_pathIRKS1_EEvOT_, symObjAddr: 0x6E04, symBinAddr: 0x100007A8C, symSize: 0xD8 }
  - { offsetInCU: 0x1C653, offset: 0x1C653, size: 0x8, addend: 0x0, symName: __ZNSt3__117__compressed_pairIP10ContestantNS_9allocatorIS1_EEE5firstB7v160006Ev, symObjAddr: 0x6EDC, symBinAddr: 0x100007B64, symSize: 0x24 }
  - { offsetInCU: 0x1C679, offset: 0x1C679, size: 0x8, addend: 0x0, symName: __ZNSt3__122__compressed_pair_elemIP10ContestantLi0ELb0EE5__getB7v160006Ev, symObjAddr: 0x6F00, symBinAddr: 0x100007B88, symSize: 0x14 }
  - { offsetInCU: 0x1C6B8, offset: 0x1C6B8, size: 0x8, addend: 0x0, symName: __ZNSt3__16vectorI10ContestantNS_9allocatorIS1_EEE21_ConstructTransactionC1B7v160006ERS4_m, symObjAddr: 0x6F14, symBinAddr: 0x100007B9C, symSize: 0x3C }
  - { offsetInCU: 0x1C700, offset: 0x1C700, size: 0x8, addend: 0x0, symName: __ZNSt3__116allocator_traitsINS_9allocatorI10ContestantEEE9constructB7v160006IS2_JRKS2_EvEEvRS3_PT_DpOT0_, symObjAddr: 0x6F50, symBinAddr: 0x100007BD8, symSize: 0x34 }
  - { offsetInCU: 0x1C757, offset: 0x1C757, size: 0x8, addend: 0x0, symName: __ZNSt3__16vectorI10ContestantNS_9allocatorIS1_EEE21_ConstructTransactionD1B7v160006Ev, symObjAddr: 0x6F84, symBinAddr: 0x100007C0C, symSize: 0x2C }
  - { offsetInCU: 0x1C781, offset: 0x1C781, size: 0x8, addend: 0x0, symName: __ZNSt3__16vectorI10ContestantNS_9allocatorIS1_EEE21_ConstructTransactionC2B7v160006ERS4_m, symObjAddr: 0x6FB0, symBinAddr: 0x100007C38, symSize: 0x4C }
  - { offsetInCU: 0x1C7C9, offset: 0x1C7C9, size: 0x8, addend: 0x0, symName: __ZNSt3__19allocatorI10ContestantE9constructB7v160006IS1_JRKS1_EEEvPT_DpOT0_, symObjAddr: 0x6FFC, symBinAddr: 0x100007C84, symSize: 0x30 }
  - { offsetInCU: 0x1C81F, offset: 0x1C81F, size: 0x8, addend: 0x0, symName: __ZN10ContestantC1ERKS_, symObjAddr: 0x702C, symBinAddr: 0x100007CB4, symSize: 0x34 }
  - { offsetInCU: 0x1C854, offset: 0x1C854, size: 0x8, addend: 0x0, symName: __ZN10ContestantC2ERKS_, symObjAddr: 0x7060, symBinAddr: 0x100007CE8, symSize: 0x1D4 }
  - { offsetInCU: 0x1C889, offset: 0x1C889, size: 0x8, addend: 0x0, symName: __ZNSt3__16vectorI10ContestantNS_9allocatorIS1_EEE21_ConstructTransactionD2B7v160006Ev, symObjAddr: 0x7234, symBinAddr: 0x100007EBC, symSize: 0x20 }
  - { offsetInCU: 0x1C8B3, offset: 0x1C8B3, size: 0x8, addend: 0x0, symName: __ZNKSt3__16vectorI10ContestantNS_9allocatorIS1_EEE11__recommendB7v160006Em, symObjAddr: 0x7254, symBinAddr: 0x100007EDC, symSize: 0xB4 }
  - { offsetInCU: 0x1C908, offset: 0x1C908, size: 0x8, addend: 0x0, symName: __ZNSt3__114__split_bufferI10ContestantRNS_9allocatorIS1_EEEC1EmmS4_, symObjAddr: 0x7308, symBinAddr: 0x100007F90, symSize: 0x44 }
  - { offsetInCU: 0x1C95E, offset: 0x1C95E, size: 0x8, addend: 0x0, symName: __ZNSt3__114__split_bufferI10ContestantRNS_9allocatorIS1_EEED1Ev, symObjAddr: 0x7464, symBinAddr: 0x1000080EC, symSize: 0x2C }
  - { offsetInCU: 0x1C98A, offset: 0x1C98A, size: 0x8, addend: 0x0, symName: __ZNKSt3__16vectorI10ContestantNS_9allocatorIS1_EEE8max_sizeEv, symObjAddr: 0x7490, symBinAddr: 0x100008118, symSize: 0x60 }
  - { offsetInCU: 0x1C9B2, offset: 0x1C9B2, size: 0x8, addend: 0x0, symName: __ZNKSt3__16vectorI10ContestantNS_9allocatorIS1_EEE20__throw_length_errorB7v160006Ev, symObjAddr: 0x74F0, symBinAddr: 0x100008178, symSize: 0x1C }
  - { offsetInCU: 0x1C9E2, offset: 0x1C9E2, size: 0x8, addend: 0x0, symName: __ZNSt3__116allocator_traitsINS_9allocatorI10ContestantEEE8max_sizeB7v160006IS3_vEEmRKS3_, symObjAddr: 0x7538, symBinAddr: 0x1000081C0, symSize: 0x24 }
  - { offsetInCU: 0x1CA10, offset: 0x1CA10, size: 0x8, addend: 0x0, symName: __ZNKSt3__16vectorI10ContestantNS_9allocatorIS1_EEE7__allocB7v160006Ev, symObjAddr: 0x755C, symBinAddr: 0x1000081E4, symSize: 0x28 }
  - { offsetInCU: 0x1CA36, offset: 0x1CA36, size: 0x8, addend: 0x0, symName: __ZNKSt3__19allocatorI10ContestantE8max_sizeB7v160006Ev, symObjAddr: 0x7584, symBinAddr: 0x10000820C, symSize: 0x20 }
  - { offsetInCU: 0x1CA5C, offset: 0x1CA5C, size: 0x8, addend: 0x0, symName: __ZNKSt3__117__compressed_pairIP10ContestantNS_9allocatorIS1_EEE6secondB7v160006Ev, symObjAddr: 0x75A4, symBinAddr: 0x10000822C, symSize: 0x24 }
  - { offsetInCU: 0x1CA82, offset: 0x1CA82, size: 0x8, addend: 0x0, symName: __ZNKSt3__122__compressed_pair_elemINS_9allocatorI10ContestantEELi1ELb1EE5__getB7v160006Ev, symObjAddr: 0x75C8, symBinAddr: 0x100008250, symSize: 0x14 }
  - { offsetInCU: 0x1CAA8, offset: 0x1CAA8, size: 0x8, addend: 0x0, symName: __ZNSt3__114__split_bufferI10ContestantRNS_9allocatorIS1_EEEC2EmmS4_, symObjAddr: 0x7630, symBinAddr: 0x1000082B8, symSize: 0xE0 }
  - { offsetInCU: 0x1CB1B, offset: 0x1CB1B, size: 0x8, addend: 0x0, symName: __ZNSt3__117__compressed_pairIP10ContestantRNS_9allocatorIS1_EEEC1B7v160006IDnS5_EEOT_OT0_, symObjAddr: 0x7710, symBinAddr: 0x100008398, symSize: 0x3C }
  - { offsetInCU: 0x1CB73, offset: 0x1CB73, size: 0x8, addend: 0x0, symName: __ZNSt3__114__split_bufferI10ContestantRNS_9allocatorIS1_EEE7__allocB7v160006Ev, symObjAddr: 0x778C, symBinAddr: 0x100008414, symSize: 0x28 }
  - { offsetInCU: 0x1CB99, offset: 0x1CB99, size: 0x8, addend: 0x0, symName: __ZNSt3__114__split_bufferI10ContestantRNS_9allocatorIS1_EEE9__end_capB7v160006Ev, symObjAddr: 0x77B4, symBinAddr: 0x10000843C, symSize: 0x28 }
  - { offsetInCU: 0x1CBBF, offset: 0x1CBBF, size: 0x8, addend: 0x0, symName: __ZNSt3__117__compressed_pairIP10ContestantRNS_9allocatorIS1_EEEC2B7v160006IDnS5_EEOT_OT0_, symObjAddr: 0x77DC, symBinAddr: 0x100008464, symSize: 0x48 }
  - { offsetInCU: 0x1CC17, offset: 0x1CC17, size: 0x8, addend: 0x0, symName: __ZNSt3__122__compressed_pair_elemIRNS_9allocatorI10ContestantEELi1ELb0EEC2B7v160006IS4_vEEOT_, symObjAddr: 0x7824, symBinAddr: 0x1000084AC, symSize: 0x20 }
  - { offsetInCU: 0x1CC59, offset: 0x1CC59, size: 0x8, addend: 0x0, symName: __ZNSt3__19allocatorI10ContestantE8allocateB7v160006Em, symObjAddr: 0x7844, symBinAddr: 0x1000084CC, symSize: 0x5C }
  - { offsetInCU: 0x1CC8D, offset: 0x1CC8D, size: 0x8, addend: 0x0, symName: __ZNSt3__117__compressed_pairIP10ContestantRNS_9allocatorIS1_EEE6secondB7v160006Ev, symObjAddr: 0x78A0, symBinAddr: 0x100008528, symSize: 0x28 }
  - { offsetInCU: 0x1CCB3, offset: 0x1CCB3, size: 0x8, addend: 0x0, symName: __ZNSt3__122__compressed_pair_elemIRNS_9allocatorI10ContestantEELi1ELb0EE5__getB7v160006Ev, symObjAddr: 0x78C8, symBinAddr: 0x100008550, symSize: 0x18 }
  - { offsetInCU: 0x1CCD9, offset: 0x1CCD9, size: 0x8, addend: 0x0, symName: __ZNSt3__117__compressed_pairIP10ContestantRNS_9allocatorIS1_EEE5firstB7v160006Ev, symObjAddr: 0x78E0, symBinAddr: 0x100008568, symSize: 0x24 }
  - { offsetInCU: 0x1CCFF, offset: 0x1CCFF, size: 0x8, addend: 0x0, symName: __ZNSt3__116reverse_iteratorIP10ContestantEC1B7v160006ES2_, symObjAddr: 0x7A30, symBinAddr: 0x1000086B8, symSize: 0x34 }
  - { offsetInCU: 0x1CD37, offset: 0x1CD37, size: 0x8, addend: 0x0, symName: __ZNKSt3__116reverse_iteratorIP10ContestantE4baseB7v160006Ev, symObjAddr: 0x7A64, symBinAddr: 0x1000086EC, symSize: 0x18 }
  - { offsetInCU: 0x1CD5D, offset: 0x1CD5D, size: 0x8, addend: 0x0, symName: __ZNKSt3__16vectorI10ContestantNS_9allocatorIS1_EEE14__annotate_newB7v160006Em, symObjAddr: 0x7AB8, symBinAddr: 0x100008740, symSize: 0xC8 }
  - { offsetInCU: 0x1CD92, offset: 0x1CD92, size: 0x8, addend: 0x0, symName: __ZNSt3__129_AllocatorDestroyRangeReverseINS_9allocatorI10ContestantEENS_16reverse_iteratorIPS2_EEEC1B7v160006ERS3_RS6_S9_, symObjAddr: 0x7BDC, symBinAddr: 0x100008864, symSize: 0x44 }
  - { offsetInCU: 0x1CDE9, offset: 0x1CDE9, size: 0x8, addend: 0x0, symName: __ZNKSt3__116reverse_iteratorIP10ContestantEdeB7v160006Ev, symObjAddr: 0x7C8C, symBinAddr: 0x100008914, symSize: 0x28 }
  - { offsetInCU: 0x1CE1D, offset: 0x1CE1D, size: 0x8, addend: 0x0, symName: __ZNSt3__116reverse_iteratorIP10ContestantEppB7v160006Ev, symObjAddr: 0x7CB4, symBinAddr: 0x10000893C, symSize: 0x20 }
  - { offsetInCU: 0x1CE43, offset: 0x1CE43, size: 0x8, addend: 0x0, symName: __ZNSt3__128__exception_guard_exceptionsINS_29_AllocatorDestroyRangeReverseINS_9allocatorI10ContestantEENS_16reverse_iteratorIPS3_EEEEE10__completeB7v160006Ev, symObjAddr: 0x7CD4, symBinAddr: 0x10000895C, symSize: 0x1C }
  - { offsetInCU: 0x1CE69, offset: 0x1CE69, size: 0x8, addend: 0x0, symName: __ZNSt3__128__exception_guard_exceptionsINS_29_AllocatorDestroyRangeReverseINS_9allocatorI10ContestantEENS_16reverse_iteratorIPS3_EEEEED1B7v160006Ev, symObjAddr: 0x7CF0, symBinAddr: 0x100008978, symSize: 0x2C }
  - { offsetInCU: 0x1CE93, offset: 0x1CE93, size: 0x8, addend: 0x0, symName: __ZNSt3__128__exception_guard_exceptionsINS_29_AllocatorDestroyRangeReverseINS_9allocatorI10ContestantEENS_16reverse_iteratorIPS3_EEEEEC1B7v160006ES8_, symObjAddr: 0x7D1C, symBinAddr: 0x1000089A4, symSize: 0x34 }
  - { offsetInCU: 0x1CECC, offset: 0x1CECC, size: 0x8, addend: 0x0, symName: __ZNSt3__128__exception_guard_exceptionsINS_29_AllocatorDestroyRangeReverseINS_9allocatorI10ContestantEENS_16reverse_iteratorIPS3_EEEEEC2B7v160006ES8_, symObjAddr: 0x7D50, symBinAddr: 0x1000089D8, symSize: 0x30 }
  - { offsetInCU: 0x1CF05, offset: 0x1CF05, size: 0x8, addend: 0x0, symName: __ZNSt3__129_AllocatorDestroyRangeReverseINS_9allocatorI10ContestantEENS_16reverse_iteratorIPS2_EEEC2B7v160006ERS3_RS6_S9_, symObjAddr: 0x7D80, symBinAddr: 0x100008A08, symSize: 0x38 }
  - { offsetInCU: 0x1CF61, offset: 0x1CF61, size: 0x8, addend: 0x0, symName: __ZNSt3__119__to_address_helperINS_16reverse_iteratorIP10ContestantEEvE6__callB7v160006ERKS4_, symObjAddr: 0x7DB8, symBinAddr: 0x100008A40, symSize: 0x38 }
  - { offsetInCU: 0x1CF84, offset: 0x1CF84, size: 0x8, addend: 0x0, symName: __ZNKSt3__116reverse_iteratorIP10ContestantEptB7v160006Ev, symObjAddr: 0x7DF0, symBinAddr: 0x100008A78, symSize: 0x24 }
  - { offsetInCU: 0x1CFAA, offset: 0x1CFAA, size: 0x8, addend: 0x0, symName: __ZNSt3__128__exception_guard_exceptionsINS_29_AllocatorDestroyRangeReverseINS_9allocatorI10ContestantEENS_16reverse_iteratorIPS3_EEEEED2B7v160006Ev, symObjAddr: 0x7E14, symBinAddr: 0x100008A9C, symSize: 0x50 }
  - { offsetInCU: 0x1CFD4, offset: 0x1CFD4, size: 0x8, addend: 0x0, symName: __ZNKSt3__129_AllocatorDestroyRangeReverseINS_9allocatorI10ContestantEENS_16reverse_iteratorIPS2_EEEclB7v160006Ev, symObjAddr: 0x7E64, symBinAddr: 0x100008AEC, symSize: 0xB4 }
  - { offsetInCU: 0x1CFFB, offset: 0x1CFFB, size: 0x8, addend: 0x0, symName: __ZNSt3__116reverse_iteratorINS0_IP10ContestantEEEC1B7v160006ES3_, symObjAddr: 0x7F88, symBinAddr: 0x100008C10, symSize: 0x3C }
  - { offsetInCU: 0x1D033, offset: 0x1D033, size: 0x8, addend: 0x0, symName: __ZNSt3__116reverse_iteratorINS0_IP10ContestantEEEppB7v160006Ev, symObjAddr: 0x8048, symBinAddr: 0x100008CD0, symSize: 0x30 }
  - { offsetInCU: 0x1D059, offset: 0x1D059, size: 0x8, addend: 0x0, symName: __ZNKSt3__116reverse_iteratorINS0_IP10ContestantEEE4baseB7v160006Ev, symObjAddr: 0x8078, symBinAddr: 0x100008D00, symSize: 0x24 }
  - { offsetInCU: 0x1D084, offset: 0x1D084, size: 0x8, addend: 0x0, symName: __ZNSt3__119__to_address_helperINS_16reverse_iteratorINS1_IP10ContestantEEEEvE6__callB7v160006ERKS5_, symObjAddr: 0x809C, symBinAddr: 0x100008D24, symSize: 0x38 }
  - { offsetInCU: 0x1D0A7, offset: 0x1D0A7, size: 0x8, addend: 0x0, symName: __ZNKSt3__116reverse_iteratorINS0_IP10ContestantEEEptB7v160006Ev, symObjAddr: 0x80D4, symBinAddr: 0x100008D5C, symSize: 0x24 }
  - { offsetInCU: 0x1D0CD, offset: 0x1D0CD, size: 0x8, addend: 0x0, symName: __ZNKSt3__116reverse_iteratorINS0_IP10ContestantEEEdeB7v160006Ev, symObjAddr: 0x80F8, symBinAddr: 0x100008D80, symSize: 0x34 }
  - { offsetInCU: 0x1D101, offset: 0x1D101, size: 0x8, addend: 0x0, symName: __ZNSt3__116reverse_iteratorIP10ContestantEmmB7v160006Ev, symObjAddr: 0x812C, symBinAddr: 0x100008DB4, symSize: 0x20 }
  - { offsetInCU: 0x1D127, offset: 0x1D127, size: 0x8, addend: 0x0, symName: __ZNSt3__116reverse_iteratorINS0_IP10ContestantEEEC2B7v160006ES3_, symObjAddr: 0x814C, symBinAddr: 0x100008DD4, symSize: 0x2C }
  - { offsetInCU: 0x1D15F, offset: 0x1D15F, size: 0x8, addend: 0x0, symName: __ZNSt3__116reverse_iteratorIP10ContestantEC2B7v160006ES2_, symObjAddr: 0x8178, symBinAddr: 0x100008E00, symSize: 0x28 }
  - { offsetInCU: 0x1D197, offset: 0x1D197, size: 0x8, addend: 0x0, symName: __ZNSt3__114__split_bufferI10ContestantRNS_9allocatorIS1_EEED2Ev, symObjAddr: 0x81A0, symBinAddr: 0x100008E28, symSize: 0x8C }
  - { offsetInCU: 0x1D1C3, offset: 0x1D1C3, size: 0x8, addend: 0x0, symName: __ZNSt3__114__split_bufferI10ContestantRNS_9allocatorIS1_EEE5clearB7v160006Ev, symObjAddr: 0x822C, symBinAddr: 0x100008EB4, symSize: 0x28 }
  - { offsetInCU: 0x1D1E9, offset: 0x1D1E9, size: 0x8, addend: 0x0, symName: __ZNKSt3__114__split_bufferI10ContestantRNS_9allocatorIS1_EEE8capacityB7v160006Ev, symObjAddr: 0x8254, symBinAddr: 0x100008EDC, symSize: 0x40 }
  - { offsetInCU: 0x1D20F, offset: 0x1D20F, size: 0x8, addend: 0x0, symName: __ZNSt3__114__split_bufferI10ContestantRNS_9allocatorIS1_EEE17__destruct_at_endB7v160006EPS1_, symObjAddr: 0x8294, symBinAddr: 0x100008F1C, symSize: 0x2C }
  - { offsetInCU: 0x1D243, offset: 0x1D243, size: 0x8, addend: 0x0, symName: __ZNSt3__114__split_bufferI10ContestantRNS_9allocatorIS1_EEE17__destruct_at_endB7v160006EPS1_NS_17integral_constantIbLb0EEE, symObjAddr: 0x82C0, symBinAddr: 0x100008F48, symSize: 0x80 }
  - { offsetInCU: 0x1D283, offset: 0x1D283, size: 0x8, addend: 0x0, symName: __ZNKSt3__114__split_bufferI10ContestantRNS_9allocatorIS1_EEE9__end_capB7v160006Ev, symObjAddr: 0x8340, symBinAddr: 0x100008FC8, symSize: 0x28 }
  - { offsetInCU: 0x1D2A9, offset: 0x1D2A9, size: 0x8, addend: 0x0, symName: __ZNKSt3__117__compressed_pairIP10ContestantRNS_9allocatorIS1_EEE5firstB7v160006Ev, symObjAddr: 0x8368, symBinAddr: 0x100008FF0, symSize: 0x24 }
  - { offsetInCU: 0x1D2CF, offset: 0x1D2CF, size: 0x8, addend: 0x0, symName: __ZNKSt3__112basic_stringIcNS_11char_traitsIcEENS_9allocatorIcEEE7compareINS_17basic_string_viewIcS2_EEEENS_9enable_ifIXsr33__can_be_converted_to_string_viewIcS2_T_EE5valueEiE4typeERKSA_, symObjAddr: 0x838C, symBinAddr: 0x100009014, symSize: 0x12C }
  - { offsetInCU: 0x1D34C, offset: 0x1D34C, size: 0x8, addend: 0x0, symName: __ZNKSt3__112basic_stringIcNS_11char_traitsIcEENS_9allocatorIcEEEcvNS_17basic_string_viewIcS2_EEB7v160006Ev, symObjAddr: 0x84B8, symBinAddr: 0x100009140, symSize: 0x50 }
  - { offsetInCU: 0x1D372, offset: 0x1D372, size: 0x8, addend: 0x0, symName: __ZNKSt3__117basic_string_viewIcNS_11char_traitsIcEEE4sizeB7v160006Ev, symObjAddr: 0x8508, symBinAddr: 0x100009190, symSize: 0x18 }
  - { offsetInCU: 0x1D398, offset: 0x1D398, size: 0x8, addend: 0x0, symName: __ZNSt3__111char_traitsIcE7compareEPKcS3_m, symObjAddr: 0x8520, symBinAddr: 0x1000091A8, symSize: 0x6C }
  - { offsetInCU: 0x1D3D7, offset: 0x1D3D7, size: 0x8, addend: 0x0, symName: __ZNKSt3__112basic_stringIcNS_11char_traitsIcEENS_9allocatorIcEEE4dataB7v160006Ev, symObjAddr: 0x858C, symBinAddr: 0x100009214, symSize: 0x28 }
  - { offsetInCU: 0x1D3FD, offset: 0x1D3FD, size: 0x8, addend: 0x0, symName: __ZNKSt3__117basic_string_viewIcNS_11char_traitsIcEEE4dataB7v160006Ev, symObjAddr: 0x85B4, symBinAddr: 0x10000923C, symSize: 0x18 }
  - { offsetInCU: 0x1D423, offset: 0x1D423, size: 0x8, addend: 0x0, symName: __ZNKSt3__112basic_stringIcNS_11char_traitsIcEENS_9allocatorIcEEE13__get_pointerB7v160006Ev, symObjAddr: 0x8614, symBinAddr: 0x10000929C, symSize: 0x54 }
  - { offsetInCU: 0x1D449, offset: 0x1D449, size: 0x8, addend: 0x0, symName: __ZNKSt3__112basic_stringIcNS_11char_traitsIcEENS_9allocatorIcEEE18__get_long_pointerB7v160006Ev, symObjAddr: 0x8668, symBinAddr: 0x1000092F0, symSize: 0x28 }
  - { offsetInCU: 0x1D46F, offset: 0x1D46F, size: 0x8, addend: 0x0, symName: __ZNKSt3__112basic_stringIcNS_11char_traitsIcEENS_9allocatorIcEEE19__get_short_pointerB7v160006Ev, symObjAddr: 0x8690, symBinAddr: 0x100009318, symSize: 0x28 }
  - { offsetInCU: 0x1D495, offset: 0x1D495, size: 0x8, addend: 0x0, symName: __ZNSt3__114pointer_traitsIPKcE10pointer_toB7v160006ERS1_, symObjAddr: 0x86B8, symBinAddr: 0x100009340, symSize: 0x14 }
  - { offsetInCU: 0x1D4B8, offset: 0x1D4B8, size: 0x8, addend: 0x0, symName: __ZNSt3__117basic_string_viewIcNS_11char_traitsIcEEEC1B7v160006EPKcm, symObjAddr: 0x86CC, symBinAddr: 0x100009354, symSize: 0x3C }
  - { offsetInCU: 0x1D500, offset: 0x1D500, size: 0x8, addend: 0x0, symName: __ZNSt3__117basic_string_viewIcNS_11char_traitsIcEEEC2B7v160006EPKcm, symObjAddr: 0x8708, symBinAddr: 0x100009390, symSize: 0x50 }
  - { offsetInCU: 0x1D548, offset: 0x1D548, size: 0x8, addend: 0x0, symName: __ZNSt3__16vectorI10ContestantNS_9allocatorIS1_EEE11__make_iterB7v160006EPS1_, symObjAddr: 0x8758, symBinAddr: 0x1000093E0, symSize: 0x34 }
  - { offsetInCU: 0x1D57D, offset: 0x1D57D, size: 0x8, addend: 0x0, symName: __ZNSt3__111__wrap_iterIP10ContestantEC1B7v160006EPKvS2_, symObjAddr: 0x878C, symBinAddr: 0x100009414, symSize: 0x3C }
  - { offsetInCU: 0x1D5C3, offset: 0x1D5C3, size: 0x8, addend: 0x0, symName: __ZNSt3__111__wrap_iterIP10ContestantEC2B7v160006EPKvS2_, symObjAddr: 0x87C8, symBinAddr: 0x100009450, symSize: 0x24 }
  - { offsetInCU: 0x1D609, offset: 0x1D609, size: 0x8, addend: 0x0, symName: __ZNKSt3__16vectorI10ContestantNS_9allocatorIS1_EEE6cbeginB7v160006Ev, symObjAddr: 0x8834, symBinAddr: 0x1000094BC, symSize: 0x2C }
  - { offsetInCU: 0x1D62F, offset: 0x1D62F, size: 0x8, addend: 0x0, symName: __ZNSt3__16vectorI10ContestantNS_9allocatorIS1_EEE17__destruct_at_endB7v160006EPS1_, symObjAddr: 0x8860, symBinAddr: 0x1000094E8, symSize: 0x60 }
  - { offsetInCU: 0x1D673, offset: 0x1D673, size: 0x8, addend: 0x0, symName: __ZNSt3__16vectorI10ContestantNS_9allocatorIS1_EEE27__invalidate_iterators_pastB7v160006EPS1_, symObjAddr: 0x8900, symBinAddr: 0x100009588, symSize: 0x14 }
  - { offsetInCU: 0x1D6AA, offset: 0x1D6AA, size: 0x8, addend: 0x0, symName: __ZNKSt3__111__wrap_iterIPK10ContestantE4baseB7v160006Ev, symObjAddr: 0x8914, symBinAddr: 0x10000959C, symSize: 0x18 }
  - { offsetInCU: 0x1D6D0, offset: 0x1D6D0, size: 0x8, addend: 0x0, symName: __ZNKSt3__16vectorI10ContestantNS_9allocatorIS1_EEE5beginB7v160006Ev, symObjAddr: 0x892C, symBinAddr: 0x1000095B4, symSize: 0x30 }
  - { offsetInCU: 0x1D6F8, offset: 0x1D6F8, size: 0x8, addend: 0x0, symName: __ZNKSt3__16vectorI10ContestantNS_9allocatorIS1_EEE11__make_iterB7v160006EPKS1_, symObjAddr: 0x895C, symBinAddr: 0x1000095E4, symSize: 0x34 }
  - { offsetInCU: 0x1D72D, offset: 0x1D72D, size: 0x8, addend: 0x0, symName: __ZNSt3__111__wrap_iterIPK10ContestantEC1B7v160006EPKvS3_, symObjAddr: 0x8990, symBinAddr: 0x100009618, symSize: 0x3C }
  - { offsetInCU: 0x1D773, offset: 0x1D773, size: 0x8, addend: 0x0, symName: __ZNSt3__111__wrap_iterIPK10ContestantEC2B7v160006EPKvS3_, symObjAddr: 0x89CC, symBinAddr: 0x100009654, symSize: 0x24 }
  - { offsetInCU: 0x1D7B9, offset: 0x1D7B9, size: 0x8, addend: 0x0, symName: __ZNKSt3__16vectorI10ContestantNS_9allocatorIS1_EEE17__annotate_shrinkB7v160006Em, symObjAddr: 0x89F0, symBinAddr: 0x100009678, symSize: 0xD0 }
  - { offsetInCU: 0x1D812, offset: 0x1D812, size: 0x8, addend: 0x0, symName: __ZNKSt3__111__move_loopINS_17_ClassicAlgPolicyEEclB7v160006IP10ContestantS5_S5_EENS_4pairIT_T1_EES7_T0_S8_, symObjAddr: 0x8C5C, symBinAddr: 0x1000098E4, symSize: 0x90 }
  - { offsetInCU: 0x1D883, offset: 0x1D883, size: 0x8, addend: 0x0, symName: __ZNSt3__18_IterOpsINS_17_ClassicAlgPolicyEE11__iter_moveB7v160006IRP10ContestantEENS_9enable_ifIXsr12is_referenceIDTdeclsr3stdE7declvalIRT_EEEEE5valueEDTclsr3stdE4movedeclsr3stdE7declvalIS9_EEEEE4typeEOS8_, symObjAddr: 0x8DB0, symBinAddr: 0x100009A38, symSize: 0x28 }
  - { offsetInCU: 0x1D8AF, offset: 0x1D8AF, size: 0x8, addend: 0x0, symName: __ZN10ContestantaSERKS_, symObjAddr: 0x8DD8, symBinAddr: 0x100009A60, symSize: 0xD4 }
  - { offsetInCU: 0x1D8E0, offset: 0x1D8E0, size: 0x8, addend: 0x0, symName: __ZNSt3__18_IterOpsINS_17_ClassicAlgPolicyEE25__validate_iter_referenceB7v160006IRP10ContestantEEvv, symObjAddr: 0x8EAC, symBinAddr: 0x100009B34, symSize: 0x4 }
  - { offsetInCU: 0x1D903, offset: 0x1D903, size: 0x8, addend: 0x0, symName: __ZN10PlayerListaSERKS_, symObjAddr: 0x8EB0, symBinAddr: 0x100009B38, symSize: 0xFC }
  - { offsetInCU: 0x1D934, offset: 0x1D934, size: 0x8, addend: 0x0, symName: __ZNSt3__16vectorI7PlayersNS_9allocatorIS1_EEEaSB7v160006ERKS4_, symObjAddr: 0x8FAC, symBinAddr: 0x100009C34, symSize: 0x68 }
  - { offsetInCU: 0x1D96B, offset: 0x1D96B, size: 0x8, addend: 0x0, symName: __ZNSt3__16vectorINS0_I7PlayersNS_9allocatorIS1_EEEENS2_IS4_EEEaSB7v160006ERKS6_, symObjAddr: 0x9014, symBinAddr: 0x100009C9C, symSize: 0x68 }
  - { offsetInCU: 0x1D9A2, offset: 0x1D9A2, size: 0x8, addend: 0x0, symName: __ZNSt3__16vectorI7PlayersNS_9allocatorIS1_EEE19__copy_assign_allocB7v160006ERKS4_, symObjAddr: 0x907C, symBinAddr: 0x100009D04, symSize: 0x2C }
  - { offsetInCU: 0x1D9D7, offset: 0x1D9D7, size: 0x8, addend: 0x0, symName: __ZNSt3__16vectorI7PlayersNS_9allocatorIS1_EEE6assignIPS1_Li0EEEvT_S7_, symObjAddr: 0x90A8, symBinAddr: 0x100009D30, symSize: 0x17C }
  - { offsetInCU: 0x1DA76, offset: 0x1DA76, size: 0x8, addend: 0x0, symName: __ZNSt3__16vectorI7PlayersNS_9allocatorIS1_EEE19__copy_assign_allocB7v160006ERKS4_NS_17integral_constantIbLb0EEE, symObjAddr: 0x9224, symBinAddr: 0x100009EAC, symSize: 0x14 }
  - { offsetInCU: 0x1DAB4, offset: 0x1DAB4, size: 0x8, addend: 0x0, symName: __ZNSt3__16vectorI7PlayersNS_9allocatorIS1_EEE17__destruct_at_endB7v160006EPS1_, symObjAddr: 0x92F4, symBinAddr: 0x100009F7C, symSize: 0x60 }
  - { offsetInCU: 0x1DAF8, offset: 0x1DAF8, size: 0x8, addend: 0x0, symName: __ZNSt3__16vectorI7PlayersNS_9allocatorIS1_EEE13__vdeallocateEv, symObjAddr: 0x9354, symBinAddr: 0x100009FDC, symSize: 0x8C }
  - { offsetInCU: 0x1DB20, offset: 0x1DB20, size: 0x8, addend: 0x0, symName: __ZNKSt3__16vectorI7PlayersNS_9allocatorIS1_EEE11__recommendB7v160006Em, symObjAddr: 0x93E0, symBinAddr: 0x10000A068, symSize: 0xB4 }
  - { offsetInCU: 0x1DB99, offset: 0x1DB99, size: 0x8, addend: 0x0, symName: __ZNKSt3__111__copy_loopINS_17_ClassicAlgPolicyEEclB7v160006IP7PlayersS5_S5_EENS_4pairIT_T1_EES7_T0_S8_, symObjAddr: 0x96AC, symBinAddr: 0x10000A334, symSize: 0x88 }
  - { offsetInCU: 0x1DC04, offset: 0x1DC04, size: 0x8, addend: 0x0, symName: __ZN7PlayersaSERKS_, symObjAddr: 0x97F8, symBinAddr: 0x10000A480, symSize: 0x70 }
  - { offsetInCU: 0x1DC35, offset: 0x1DC35, size: 0x8, addend: 0x0, symName: __ZNSt3__118__unwrap_iter_implIP7PlayersLb1EE8__unwrapB7v160006ES2_, symObjAddr: 0x9868, symBinAddr: 0x10000A4F0, symSize: 0x24 }
  - { offsetInCU: 0x1DC5E, offset: 0x1DC5E, size: 0x8, addend: 0x0, symName: __ZNSt3__14pairIP7PlayersS2_EC1B7v160006IS2_S2_LPv0EEEOT_OT0_, symObjAddr: 0x988C, symBinAddr: 0x10000A514, symSize: 0x3C }
  - { offsetInCU: 0x1DCBC, offset: 0x1DCBC, size: 0x8, addend: 0x0, symName: __ZNSt3__14pairIP7PlayersS2_EC2B7v160006IS2_S2_LPv0EEEOT_OT0_, symObjAddr: 0x98C8, symBinAddr: 0x10000A550, symSize: 0x34 }
  - { offsetInCU: 0x1DD1A, offset: 0x1DD1A, size: 0x8, addend: 0x0, symName: __ZNSt3__118__unwrap_iter_implIP7PlayersLb1EE8__rewrapB7v160006ES2_S2_, symObjAddr: 0x98FC, symBinAddr: 0x10000A584, symSize: 0x58 }
  - { offsetInCU: 0x1DD4B, offset: 0x1DD4B, size: 0x8, addend: 0x0, symName: __ZNSt3__16vectorI7PlayersNS_9allocatorIS1_EEE27__invalidate_iterators_pastB7v160006EPS1_, symObjAddr: 0x9954, symBinAddr: 0x10000A5DC, symSize: 0x14 }
  - { offsetInCU: 0x1DD82, offset: 0x1DD82, size: 0x8, addend: 0x0, symName: __ZNKSt3__16vectorI7PlayersNS_9allocatorIS1_EEE17__annotate_shrinkB7v160006Em, symObjAddr: 0x9968, symBinAddr: 0x10000A5F0, symSize: 0xD0 }
  - { offsetInCU: 0x1DDB7, offset: 0x1DDB7, size: 0x8, addend: 0x0, symName: __ZNSt3__16vectorI7PlayersNS_9allocatorIS1_EEE5clearB7v160006Ev, symObjAddr: 0x9A38, symBinAddr: 0x10000A6C0, symSize: 0x54 }
  - { offsetInCU: 0x1DDEC, offset: 0x1DDEC, size: 0x8, addend: 0x0, symName: __ZNSt3__16vectorINS0_I7PlayersNS_9allocatorIS1_EEEENS2_IS4_EEE19__copy_assign_allocB7v160006ERKS6_, symObjAddr: 0x9A8C, symBinAddr: 0x10000A714, symSize: 0x2C }
  - { offsetInCU: 0x1DE21, offset: 0x1DE21, size: 0x8, addend: 0x0, symName: __ZNSt3__16vectorINS0_I7PlayersNS_9allocatorIS1_EEEENS2_IS4_EEE6assignIPS4_Li0EEEvT_S9_, symObjAddr: 0x9AB8, symBinAddr: 0x10000A740, symSize: 0x17C }
  - { offsetInCU: 0x1DEC0, offset: 0x1DEC0, size: 0x8, addend: 0x0, symName: __ZNSt3__16vectorINS0_I7PlayersNS_9allocatorIS1_EEEENS2_IS4_EEE19__copy_assign_allocB7v160006ERKS6_NS_17integral_constantIbLb0EEE, symObjAddr: 0x9C34, symBinAddr: 0x10000A8BC, symSize: 0x14 }
  - { offsetInCU: 0x1DEFE, offset: 0x1DEFE, size: 0x8, addend: 0x0, symName: __ZNSt3__16vectorINS0_I7PlayersNS_9allocatorIS1_EEEENS2_IS4_EEE17__destruct_at_endB7v160006EPS4_, symObjAddr: 0x9D04, symBinAddr: 0x10000A98C, symSize: 0x60 }
  - { offsetInCU: 0x1DF42, offset: 0x1DF42, size: 0x8, addend: 0x0, symName: __ZNSt3__16vectorINS0_I7PlayersNS_9allocatorIS1_EEEENS2_IS4_EEE13__vdeallocateEv, symObjAddr: 0x9D64, symBinAddr: 0x10000A9EC, symSize: 0x8C }
  - { offsetInCU: 0x1DF6A, offset: 0x1DF6A, size: 0x8, addend: 0x0, symName: __ZNKSt3__16vectorINS0_I7PlayersNS_9allocatorIS1_EEEENS2_IS4_EEE11__recommendB7v160006Em, symObjAddr: 0x9DF0, symBinAddr: 0x10000AA78, symSize: 0xB4 }
  - { offsetInCU: 0x1DFD9, offset: 0x1DFD9, size: 0x8, addend: 0x0, symName: __ZNKSt3__111__copy_loopINS_17_ClassicAlgPolicyEEclB7v160006IPNS_6vectorI7PlayersNS_9allocatorIS5_EEEES9_S9_EENS_4pairIT_T1_EESB_T0_SC_, symObjAddr: 0xA0A8, symBinAddr: 0x10000AD30, symSize: 0x88 }
  - { offsetInCU: 0x1E044, offset: 0x1E044, size: 0x8, addend: 0x0, symName: __ZNSt3__118__unwrap_iter_implIPNS_6vectorI7PlayersNS_9allocatorIS2_EEEELb1EE8__unwrapB7v160006ES6_, symObjAddr: 0xA1F4, symBinAddr: 0x10000AE7C, symSize: 0x24 }
  - { offsetInCU: 0x1E06D, offset: 0x1E06D, size: 0x8, addend: 0x0, symName: __ZNSt3__14pairIPNS_6vectorI7PlayersNS_9allocatorIS2_EEEES6_EC1B7v160006IS6_S6_LPv0EEEOT_OT0_, symObjAddr: 0xA218, symBinAddr: 0x10000AEA0, symSize: 0x3C }
  - { offsetInCU: 0x1E0CB, offset: 0x1E0CB, size: 0x8, addend: 0x0, symName: __ZNSt3__14pairIPNS_6vectorI7PlayersNS_9allocatorIS2_EEEES6_EC2B7v160006IS6_S6_LPv0EEEOT_OT0_, symObjAddr: 0xA254, symBinAddr: 0x10000AEDC, symSize: 0x34 }
  - { offsetInCU: 0x1E129, offset: 0x1E129, size: 0x8, addend: 0x0, symName: __ZNSt3__118__unwrap_iter_implIPNS_6vectorI7PlayersNS_9allocatorIS2_EEEELb1EE8__rewrapB7v160006ES6_S6_, symObjAddr: 0xA288, symBinAddr: 0x10000AF10, symSize: 0x58 }
  - { offsetInCU: 0x1E15A, offset: 0x1E15A, size: 0x8, addend: 0x0, symName: __ZNSt3__16vectorINS0_I7PlayersNS_9allocatorIS1_EEEENS2_IS4_EEE27__invalidate_iterators_pastB7v160006EPS4_, symObjAddr: 0xA2E0, symBinAddr: 0x10000AF68, symSize: 0x14 }
  - { offsetInCU: 0x1E191, offset: 0x1E191, size: 0x8, addend: 0x0, symName: __ZNKSt3__16vectorINS0_I7PlayersNS_9allocatorIS1_EEEENS2_IS4_EEE17__annotate_shrinkB7v160006Em, symObjAddr: 0xA2F4, symBinAddr: 0x10000AF7C, symSize: 0xD0 }
  - { offsetInCU: 0x1E1C6, offset: 0x1E1C6, size: 0x8, addend: 0x0, symName: __ZNSt3__16vectorINS0_I7PlayersNS_9allocatorIS1_EEEENS2_IS4_EEE5clearB7v160006Ev, symObjAddr: 0xA3C4, symBinAddr: 0x10000B04C, symSize: 0x54 }
  - { offsetInCU: 0x1E1FB, offset: 0x1E1FB, size: 0x8, addend: 0x0, symName: __ZNSt3__118__unwrap_iter_implIP10ContestantLb1EE8__unwrapB7v160006ES2_, symObjAddr: 0xA418, symBinAddr: 0x10000B0A0, symSize: 0x24 }
  - { offsetInCU: 0x1E224, offset: 0x1E224, size: 0x8, addend: 0x0, symName: __ZNSt3__14pairIP10ContestantS2_EC1B7v160006IS2_S2_LPv0EEEOT_OT0_, symObjAddr: 0xA43C, symBinAddr: 0x10000B0C4, symSize: 0x3C }
  - { offsetInCU: 0x1E282, offset: 0x1E282, size: 0x8, addend: 0x0, symName: __ZNSt3__14pairIP10ContestantS2_EC2B7v160006IS2_S2_LPv0EEEOT_OT0_, symObjAddr: 0xA478, symBinAddr: 0x10000B100, symSize: 0x34 }
  - { offsetInCU: 0x1E2E0, offset: 0x1E2E0, size: 0x8, addend: 0x0, symName: __ZNSt3__118__unwrap_iter_implIP10ContestantLb1EE8__rewrapB7v160006ES2_S2_, symObjAddr: 0xA4AC, symBinAddr: 0x10000B134, symSize: 0x58 }
  - { offsetInCU: 0x1E311, offset: 0x1E311, size: 0x8, addend: 0x0, symName: __ZNSt3__16vectorINS0_I7PlayersNS_9allocatorIS1_EEEENS2_IS4_EEED2B7v160006Ev, symObjAddr: 0xA504, symBinAddr: 0x10000B18C, symSize: 0x44 }
  - { offsetInCU: 0x1E33B, offset: 0x1E33B, size: 0x8, addend: 0x0, symName: __ZNSt3__18ios_base9precisionB7v160006El, symObjAddr: 0xA548, symBinAddr: 0x10000B1D0, symSize: 0x2C }
  - { offsetInCU: 0x1E381, offset: 0x1E381, size: 0x8, addend: 0x0, symName: __ZNKSt3__112basic_stringIcNS_11char_traitsIcEENS_9allocatorIcEEE15__get_long_sizeB7v160006Ev, symObjAddr: 0xA574, symBinAddr: 0x10000B1FC, symSize: 0x28 }
  - { offsetInCU: 0x1E3A7, offset: 0x1E3A7, size: 0x8, addend: 0x0, symName: __ZNKSt3__112basic_stringIcNS_11char_traitsIcEENS_9allocatorIcEEE16__get_short_sizeB7v160006Ev, symObjAddr: 0xA59C, symBinAddr: 0x10000B224, symSize: 0x34 }
  - { offsetInCU: 0x1E3CD, offset: 0x1E3CD, size: 0x8, addend: 0x0, symName: __ZNSt3__113basic_ostreamIcNS_11char_traitsIcEEEC2B7v160006EPNS_15basic_streambufIcS2_EE, symObjAddr: 0xA5D0, symBinAddr: 0x10000B258, symSize: 0x60 }
  - { offsetInCU: 0xE7C4, offset: 0x2CDBA, size: 0x8, addend: 0x0, symName: __ZN10ContestantC2Ev, symObjAddr: 0x0, symBinAddr: 0x10000B2B8, symSize: 0x194 }
  - { offsetInCU: 0xE7F0, offset: 0x2CDE6, size: 0x8, addend: 0x0, symName: __ZNSt3__112basic_stringIcNS_11char_traitsIcEENS_9allocatorIcEEEaSB7v160006EPKc, symObjAddr: 0x1C0, symBinAddr: 0x10000B44C, symSize: 0x2C }
  - { offsetInCU: 0xE825, offset: 0x2CE1B, size: 0x8, addend: 0x0, symName: __ZN10ContestantC1Ev, symObjAddr: 0x1EC, symBinAddr: 0x10000B478, symSize: 0x2C }
  - { offsetInCU: 0xE851, offset: 0x2CE47, size: 0x8, addend: 0x0, symName: __ZN10ContestantC2ENSt3__112basic_stringIcNS0_11char_traitsIcEENS0_9allocatorIcEEEES6_S6_S6_S6_S6_S6_ddd, symObjAddr: 0x218, symBinAddr: 0x10000B4A4, symSize: 0x1E0 }
  - { offsetInCU: 0xE913, offset: 0x2CF09, size: 0x8, addend: 0x0, symName: __ZN10ContestantC1ENSt3__112basic_stringIcNS0_11char_traitsIcEENS0_9allocatorIcEEEES6_S6_S6_S6_S6_S6_ddd, symObjAddr: 0x3F8, symBinAddr: 0x10000B684, symSize: 0x7C }
  - { offsetInCU: 0xE9D2, offset: 0x2CFC8, size: 0x8, addend: 0x0, symName: __ZN10ContestantD2Ev, symObjAddr: 0x474, symBinAddr: 0x10000B700, symSize: 0x80 }
  - { offsetInCU: 0xE9FE, offset: 0x2CFF4, size: 0x8, addend: 0x0, symName: __ZN10ContestantD1Ev, symObjAddr: 0x4F4, symBinAddr: 0x10000B780, symSize: 0x2C }
  - { offsetInCU: 0xEA2A, offset: 0x2D020, size: 0x8, addend: 0x0, symName: __ZN10Contestant9setPlayerENSt3__112basic_stringIcNS0_11char_traitsIcEENS0_9allocatorIcEEEEi, symObjAddr: 0x520, symBinAddr: 0x10000B7AC, symSize: 0xF0 }
  - { offsetInCU: 0xEA6F, offset: 0x2D065, size: 0x8, addend: 0x0, symName: __ZN10Contestant15setWeeklyPointsE10PlayerList, symObjAddr: 0x62C, symBinAddr: 0x10000B8B8, symSize: 0x1D0 }
  - { offsetInCU: 0xEB08, offset: 0x2D0FE, size: 0x8, addend: 0x0, symName: __ZN10Contestant12compareNamesENSt3__112basic_stringIcNS0_11char_traitsIcEENS0_9allocatorIcEEEE, symObjAddr: 0x878, symBinAddr: 0x10000BA88, symSize: 0x398 }
  - { offsetInCU: 0xEB8A, offset: 0x2D180, size: 0x8, addend: 0x0, symName: __ZN10Contestant13setTeamPointsEi, symObjAddr: 0xC68, symBinAddr: 0x10000BE20, symSize: 0x34 }
  - { offsetInCU: 0xEBC0, offset: 0x2D1B6, size: 0x8, addend: 0x0, symName: __ZN10Contestant14setTotalPointsEd, symObjAddr: 0xC9C, symBinAddr: 0x10000BE54, symSize: 0x20 }
  - { offsetInCU: 0xEBF6, offset: 0x2D1EC, size: 0x8, addend: 0x0, symName: __ZN10Contestant14addTotalPointsEv, symObjAddr: 0xCBC, symBinAddr: 0x10000BE74, symSize: 0x24 }
  - { offsetInCU: 0xEC1E, offset: 0x2D214, size: 0x8, addend: 0x0, symName: __ZNK10Contestant8getCNameEv, symObjAddr: 0xD60, symBinAddr: 0x10000BE98, symSize: 0x3C }
  - { offsetInCU: 0xEC46, offset: 0x2D23C, size: 0x8, addend: 0x0, symName: __ZNK10Contestant7getTeamEv, symObjAddr: 0xD9C, symBinAddr: 0x10000BED4, symSize: 0x3C }
  - { offsetInCU: 0xEC6E, offset: 0x2D264, size: 0x8, addend: 0x0, symName: __ZNK10Contestant15getWeeklyPointsEv, symObjAddr: 0xDD8, symBinAddr: 0x10000BF10, symSize: 0x18 }
  - { offsetInCU: 0xEC96, offset: 0x2D28C, size: 0x8, addend: 0x0, symName: __ZNK10Contestant13getTeamPointsEv, symObjAddr: 0xDF0, symBinAddr: 0x10000BF28, symSize: 0x18 }
  - { offsetInCU: 0xECBE, offset: 0x2D2B4, size: 0x8, addend: 0x0, symName: __ZN10Contestant5printEv, symObjAddr: 0xE08, symBinAddr: 0x10000BF40, symSize: 0x120 }
  - { offsetInCU: 0xECE6, offset: 0x2D2DC, size: 0x8, addend: 0x0, symName: __ZN10Contestant11printToFileERNSt3__114basic_ofstreamIcNS0_11char_traitsIcEEEE, symObjAddr: 0x123C, symBinAddr: 0x10000C060, symSize: 0x108 }
  - { offsetInCU: 0xBF37, offset: 0x39275, size: 0x8, addend: 0x0, symName: __ZNSt3__1rsB7v160006IcNS_11char_traitsIcEEEERNS_13basic_istreamIT_T0_EES7_RS4_, symObjAddr: 0x3E0, symBinAddr: 0x10000C478, symSize: 0x190 }
  - { offsetInCU: 0xBFB9, offset: 0x392F7, size: 0x8, addend: 0x0, symName: __ZNSt3__17getlineB7v160006IcNS_11char_traitsIcEENS_9allocatorIcEEEERNS_13basic_istreamIT_T0_EES9_RNS_12basic_stringIS6_S7_T1_EE, symObjAddr: 0x110C, symBinAddr: 0x10000D118, symSize: 0x5C }
  - { offsetInCU: 0xF0AA, offset: 0x3C3E8, size: 0x8, addend: 0x0, symName: __Z7toloweri, symObjAddr: 0x570, symBinAddr: 0x10000C608, symSize: 0x24 }
  - { offsetInCU: 0xF85E, offset: 0x3CB9C, size: 0x8, addend: 0x0, symName: _main, symObjAddr: 0x0, symBinAddr: 0x10000C168, symSize: 0x218 }
  - { offsetInCU: 0xF8AA, offset: 0x3CBE8, size: 0x8, addend: 0x0, symName: __ZNSt3__112basic_stringIcNS_11char_traitsIcEENS_9allocatorIcEEEC1B7v160006IDnEEPKc, symObjAddr: 0x218, symBinAddr: 0x10000C380, symSize: 0x34 }
  - { offsetInCU: 0xFB47, offset: 0x3CE85, size: 0x8, addend: 0x0, symName: __Z9printMenuv, symObjAddr: 0x280, symBinAddr: 0x10000C3B4, symSize: 0xC4 }
  - { offsetInCU: 0xFB61, offset: 0x3CE9F, size: 0x8, addend: 0x0, symName: __Z6runCMDcR10PlayerListR14ContestantList, symObjAddr: 0x59C, symBinAddr: 0x10000C62C, symSize: 0x150 }
  - { offsetInCU: 0xFBA5, offset: 0x3CEE3, size: 0x8, addend: 0x0, symName: __Z16thePrintFunctionR10PlayerList, symObjAddr: 0x788, symBinAddr: 0x10000C7C0, symSize: 0x14C }
  - { offsetInCU: 0xFBDA, offset: 0x3CF18, size: 0x8, addend: 0x0, symName: __Z17thePrintCFunctionR14ContestantList10PlayerList, symObjAddr: 0x8D4, symBinAddr: 0x10000C90C, symSize: 0x188 }
  - { offsetInCU: 0xFC24, offset: 0x3CF62, size: 0x8, addend: 0x0, symName: __Z19theEditListFunctionR10PlayerList, symObjAddr: 0xA5C, symBinAddr: 0x10000CA94, symSize: 0x11C }
  - { offsetInCU: 0xFC5A, offset: 0x3CF98, size: 0x8, addend: 0x0, symName: __Z16theEditCFunctionR14ContestantList10PlayerList, symObjAddr: 0xB78, symBinAddr: 0x10000CBB0, symSize: 0x1E8 }
  - { offsetInCU: 0xFC9E, offset: 0x3CFDC, size: 0x8, addend: 0x0, symName: __Z8saveFileR14ContestantListR10PlayerList, symObjAddr: 0xD60, symBinAddr: 0x10000CD98, symSize: 0xE0 }
  - { offsetInCU: 0xFCD8, offset: 0x3D016, size: 0x8, addend: 0x0, symName: __Z15cmdPrintPlayerscR10PlayerList, symObjAddr: 0xE40, symBinAddr: 0x10000CE78, symSize: 0x25C }
  - { offsetInCU: 0xFD2A, offset: 0x3D068, size: 0x8, addend: 0x0, symName: __Z17cmdEditPlayerListcR10PlayerList, symObjAddr: 0x1168, symBinAddr: 0x10000D174, symSize: 0x4A4 }
  - { offsetInCU: 0xFDAA, offset: 0x3D0E8, size: 0x8, addend: 0x0, symName: __Z21cmdEditContestantListcR14ContestantList10PlayerList, symObjAddr: 0x160C, symBinAddr: 0x10000D618, symSize: 0x600 }
  - { offsetInCU: 0xFE47, offset: 0x3D185, size: 0x8, addend: 0x0, symName: __Z16cmdPrintCPlayerscR14ContestantList10PlayerList, symObjAddr: 0x1C50, symBinAddr: 0x10000DC5C, symSize: 0x214 }
  - { offsetInCU: 0xFEF6, offset: 0x3D234, size: 0x8, addend: 0x0, symName: __ZNSt3__112basic_stringIcNS_11char_traitsIcEENS_9allocatorIcEEEC2B7v160006IDnEEPKc, symObjAddr: 0x4CE4, symBinAddr: 0x10000DE70, symSize: 0x60 }
  - { offsetInCU: 0xE7E6, offset: 0x4BF23, size: 0x8, addend: 0x0, symName: __ZNSt3__142__uninitialized_allocator_move_if_noexceptB7v160006INS_9allocatorINS_6vectorI7PlayersNS1_IS3_EEEEEENS_16reverse_iteratorIPS5_EES9_S9_EET2_RT_T0_T1_SA_, symObjAddr: 0x8804, symBinAddr: 0x1000131B0, symSize: 0x12C }
  - { offsetInCU: 0xE886, offset: 0x4BFC3, size: 0x8, addend: 0x0, symName: __ZNSt3__14swapB7v160006IPNS_6vectorI7PlayersNS_9allocatorIS2_EEEEEENS_9enable_ifIXaasr21is_move_constructibleIT_EE5valuesr18is_move_assignableIS8_EE5valueEvE4typeERS8_SB_, symObjAddr: 0x897C, symBinAddr: 0x1000132DC, symSize: 0x3C }
  - { offsetInCU: 0xE8D7, offset: 0x4C014, size: 0x8, addend: 0x0, symName: __ZNSt3__122__make_exception_guardB7v160006INS_29_AllocatorDestroyRangeReverseINS_9allocatorINS_6vectorI7PlayersNS2_IS4_EEEEEENS_16reverse_iteratorIPS6_EEEEEENS_28__exception_guard_exceptionsIT_EESD_, symObjAddr: 0x8A90, symBinAddr: 0x100013318, symSize: 0x4C }
  - { offsetInCU: 0xE90D, offset: 0x4C04A, size: 0x8, addend: 0x0, symName: __ZNSt3__115__debug_db_swapB7v160006INS_6vectorI7PlayersNS_9allocatorIS2_EEEEEEvPT_S7_, symObjAddr: 0x8E68, symBinAddr: 0x100013600, symSize: 0x14 }
  - { offsetInCU: 0xE94C, offset: 0x4C089, size: 0x8, addend: 0x0, symName: __ZNSt3__119__allocator_destroyB7v160006INS_9allocatorINS_6vectorI7PlayersNS1_IS3_EEEEEENS_16reverse_iteratorINS7_IPS5_EEEESA_EEvRT_T0_T1_, symObjAddr: 0x9098, symBinAddr: 0x100013718, symSize: 0x70 }
  - { offsetInCU: 0xE9B1, offset: 0x4C0EE, size: 0x8, addend: 0x0, symName: __ZNSt3__1neB7v160006INS_16reverse_iteratorIPNS_6vectorI7PlayersNS_9allocatorIS3_EEEEEES8_EEbRKNS1_IT_EERKNS1_IT0_EE, symObjAddr: 0x9144, symBinAddr: 0x1000137C4, symSize: 0x60 }
  - { offsetInCU: 0xE9FD, offset: 0x4C13A, size: 0x8, addend: 0x0, symName: __ZNSt3__112__to_addressB7v160006INS_16reverse_iteratorINS1_IPNS_6vectorI7PlayersNS_9allocatorIS3_EEEEEEEEvEENS_5decayIDTclsr19__to_address_helperIT_EE6__callclsr3stdE7declvalIRKSB_EEEEE4typeESD_, symObjAddr: 0x91A4, symBinAddr: 0x100013824, symSize: 0x24 }
  - { offsetInCU: 0xEA5C, offset: 0x4C199, size: 0x8, addend: 0x0, symName: __ZNSt3__142__uninitialized_allocator_move_if_noexceptB7v160006INS_9allocatorI7PlayersEENS_16reverse_iteratorIPS2_EES6_S6_EET2_RT_T0_T1_S7_, symObjAddr: 0xAA18, symBinAddr: 0x1000140F0, symSize: 0x12C }
  - { offsetInCU: 0xEAFC, offset: 0x4C239, size: 0x8, addend: 0x0, symName: __ZNSt3__14swapB7v160006IP7PlayersEENS_9enable_ifIXaasr21is_move_constructibleIT_EE5valuesr18is_move_assignableIS4_EE5valueEvE4typeERS4_S7_, symObjAddr: 0xAB90, symBinAddr: 0x10001421C, symSize: 0x3C }
  - { offsetInCU: 0xEB4D, offset: 0x4C28A, size: 0x8, addend: 0x0, symName: __ZNSt3__122__make_exception_guardB7v160006INS_29_AllocatorDestroyRangeReverseINS_9allocatorI7PlayersEENS_16reverse_iteratorIPS3_EEEEEENS_28__exception_guard_exceptionsIT_EESA_, symObjAddr: 0xACA4, symBinAddr: 0x100014258, symSize: 0x4C }
  - { offsetInCU: 0xEB83, offset: 0x4C2C0, size: 0x8, addend: 0x0, symName: __ZNSt3__119__allocator_destroyB7v160006INS_9allocatorI7PlayersEENS_16reverse_iteratorINS4_IPS2_EEEES7_EEvRT_T0_T1_, symObjAddr: 0xB02C, symBinAddr: 0x1000144D0, symSize: 0x70 }
  - { offsetInCU: 0xEBE8, offset: 0x4C325, size: 0x8, addend: 0x0, symName: __ZNSt3__1neB7v160006INS_16reverse_iteratorIP7PlayersEES4_EEbRKNS1_IT_EERKNS1_IT0_EE, symObjAddr: 0xB0D8, symBinAddr: 0x10001457C, symSize: 0x60 }
  - { offsetInCU: 0xEC34, offset: 0x4C371, size: 0x8, addend: 0x0, symName: __ZNSt3__112__to_addressB7v160006INS_16reverse_iteratorINS1_IP7PlayersEEEEvEENS_5decayIDTclsr19__to_address_helperIT_EE6__callclsr3stdE7declvalIRKS7_EEEEE4typeES9_, symObjAddr: 0xB138, symBinAddr: 0x1000145DC, symSize: 0x24 }
  - { offsetInCU: 0xEC93, offset: 0x4C3D0, size: 0x8, addend: 0x0, symName: __ZNSt3__1miB7v160006IPK7PlayersS3_EEDTmicldtfp_4baseEcldtfp0_4baseEERKNS_11__wrap_iterIT_EERKNS5_IT0_EE, symObjAddr: 0xB534, symBinAddr: 0x1000149B0, symSize: 0x48 }
  - { offsetInCU: 0xECDF, offset: 0x4C41C, size: 0x8, addend: 0x0, symName: __ZNSt3__14moveB7v160006IP7PlayersS2_EET0_T_S4_S3_, symObjAddr: 0xB608, symBinAddr: 0x100014A24, symSize: 0x40 }
  - { offsetInCU: 0xED39, offset: 0x4C476, size: 0x8, addend: 0x0, symName: __ZNSt3__16__moveB7v160006INS_17_ClassicAlgPolicyEP7PlayersS3_S3_EENS_4pairIT0_T2_EES5_T1_S6_, symObjAddr: 0xB808, symBinAddr: 0x100014B40, symSize: 0x44 }
  - { offsetInCU: 0xEDA5, offset: 0x4C4E2, size: 0x8, addend: 0x0, symName: __ZNSt3__123__dispatch_copy_or_moveB7v160006INS_17_ClassicAlgPolicyENS_11__move_loopIS1_EENS_14__move_trivialEP7PlayersS6_S6_EENS_4pairIT2_T4_EES8_T3_S9_, symObjAddr: 0xB84C, symBinAddr: 0x100014B84, symSize: 0x44 }
  - { offsetInCU: 0xEE23, offset: 0x4C560, size: 0x8, addend: 0x0, symName: __ZNSt3__121__unwrap_and_dispatchB7v160006INS_10__overloadINS_11__move_loopINS_17_ClassicAlgPolicyEEENS_14__move_trivialEEEP7PlayersS8_S8_Li0EEENS_4pairIT0_T2_EESA_T1_SB_, symObjAddr: 0xB890, symBinAddr: 0x100014BC8, symSize: 0xB4 }
  - { offsetInCU: 0xFCCF, offset: 0x4D40C, size: 0x8, addend: 0x0, symName: __ZNSt3__16vectorINS0_I7PlayersNS_9allocatorIS1_EEEENS2_IS4_EEE26__swap_out_circular_bufferERNS_14__split_bufferIS4_RS5_EE, symObjAddr: 0x7FBC, symBinAddr: 0x100012E34, symSize: 0x118 }
  - { offsetInCU: 0xFD63, offset: 0x4D4A0, size: 0x8, addend: 0x0, symName: __ZNSt3__16vectorI7PlayersNS_9allocatorIS1_EEE26__swap_out_circular_bufferERNS_14__split_bufferIS1_RS3_EE, symObjAddr: 0xA4E8, symBinAddr: 0x100013D74, symSize: 0x118 }
  - { offsetInCU: 0x11D01, offset: 0x4F43E, size: 0x8, addend: 0x0, symName: __ZN10PlayerListC2Ev, symObjAddr: 0x0, symBinAddr: 0x10000DED0, symSize: 0xA4 }
  - { offsetInCU: 0x11D2D, offset: 0x4F46A, size: 0x8, addend: 0x0, symName: __ZNSt3__16vectorI7PlayersNS_9allocatorIS1_EEEC1B7v160006Ev, symObjAddr: 0xA4, symBinAddr: 0x10000DF74, symSize: 0x2C }
  - { offsetInCU: 0x11D57, offset: 0x4F494, size: 0x8, addend: 0x0, symName: __ZNSt3__16vectorINS0_I7PlayersNS_9allocatorIS1_EEEENS2_IS4_EEEC1B7v160006Ev, symObjAddr: 0xD0, symBinAddr: 0x10000DFA0, symSize: 0x2C }
  - { offsetInCU: 0x11D81, offset: 0x4F4BE, size: 0x8, addend: 0x0, symName: __ZN10PlayerListC1Ev, symObjAddr: 0xFC, symBinAddr: 0x10000DFCC, symSize: 0x2C }
  - { offsetInCU: 0x11DAD, offset: 0x4F4EA, size: 0x8, addend: 0x0, symName: __ZN10PlayerListC2ENSt3__112basic_stringIcNS0_11char_traitsIcEENS0_9allocatorIcEEEE, symObjAddr: 0x128, symBinAddr: 0x10000DFF8, symSize: 0x648 }
  - { offsetInCU: 0x11F07, offset: 0x4F644, size: 0x8, addend: 0x0, symName: __ZN10PlayerList8loadDataENSt3__112basic_stringIcNS0_11char_traitsIcEENS0_9allocatorIcEEEER7Players, symObjAddr: 0xBD8, symBinAddr: 0x10000E640, symSize: 0x418 }
  - { offsetInCU: 0x12027, offset: 0x4F764, size: 0x8, addend: 0x0, symName: __ZN10PlayerList9addPlayerE7Players, symObjAddr: 0x1024, symBinAddr: 0x10000EA58, symSize: 0x2CC }
  - { offsetInCU: 0x1206C, offset: 0x4F7A9, size: 0x8, addend: 0x0, symName: __ZNSt3__16vectorINS0_I7PlayersNS_9allocatorIS1_EEEENS2_IS4_EEE9push_backB7v160006ERKS4_, symObjAddr: 0x137C, symBinAddr: 0x10000ED24, symSize: 0x6C }
  - { offsetInCU: 0x120A8, offset: 0x4F7E5, size: 0x8, addend: 0x0, symName: __ZN10PlayerListC1ENSt3__112basic_stringIcNS0_11char_traitsIcEENS0_9allocatorIcEEEE, symObjAddr: 0x1480, symBinAddr: 0x10000ED90, symSize: 0x34 }
  - { offsetInCU: 0x120E3, offset: 0x4F820, size: 0x8, addend: 0x0, symName: __ZN10PlayerListD2Ev, symObjAddr: 0x14B4, symBinAddr: 0x10000EDC4, symSize: 0xA4 }
  - { offsetInCU: 0x1210F, offset: 0x4F84C, size: 0x8, addend: 0x0, symName: __ZN10PlayerListD1Ev, symObjAddr: 0x1558, symBinAddr: 0x10000EE68, symSize: 0x2C }
  - { offsetInCU: 0x1213B, offset: 0x4F878, size: 0x8, addend: 0x0, symName: __ZNK10PlayerList7getListEv, symObjAddr: 0x1584, symBinAddr: 0x10000EE94, symSize: 0x3C }
  - { offsetInCU: 0x12163, offset: 0x4F8A0, size: 0x8, addend: 0x0, symName: __ZN10PlayerList11toLowerCaseENSt3__112basic_stringIcNS0_11char_traitsIcEENS0_9allocatorIcEEEE, symObjAddr: 0x15F4, symBinAddr: 0x10000EED0, symSize: 0x118 }
  - { offsetInCU: 0x121C5, offset: 0x4F902, size: 0x8, addend: 0x0, symName: __ZNKSt3__112basic_stringIcNS_11char_traitsIcEENS_9allocatorIcEEEixB7v160006Em, symObjAddr: 0x1784, symBinAddr: 0x10000EFE8, symSize: 0x30 }
  - { offsetInCU: 0x121FA, offset: 0x4F937, size: 0x8, addend: 0x0, symName: __ZNSt3__112basic_stringIcNS_11char_traitsIcEENS_9allocatorIcEEEixB7v160006Em, symObjAddr: 0x17B4, symBinAddr: 0x10000F018, symSize: 0x30 }
  - { offsetInCU: 0x1222F, offset: 0x4F96C, size: 0x8, addend: 0x0, symName: __ZN10PlayerList9newPlayerENSt3__112basic_stringIcNS0_11char_traitsIcEENS0_9allocatorIcEEEES6_S6_, symObjAddr: 0x17E4, symBinAddr: 0x10000F048, symSize: 0x40C }
  - { offsetInCU: 0x122DB, offset: 0x4FA18, size: 0x8, addend: 0x0, symName: __ZN10PlayerList9laneCheckENSt3__112basic_stringIcNS0_11char_traitsIcEENS0_9allocatorIcEEEE, symObjAddr: 0x1BF0, symBinAddr: 0x10000F454, symSize: 0x160 }
  - { offsetInCU: 0x12312, offset: 0x4FA4F, size: 0x8, addend: 0x0, symName: __ZNSt3__16vectorI7PlayersNS_9allocatorIS1_EEE9push_backB7v160006ERKS1_, symObjAddr: 0x1E1C, symBinAddr: 0x10000F5B4, symSize: 0x6C }
  - { offsetInCU: 0x12349, offset: 0x4FA86, size: 0x8, addend: 0x0, symName: __ZN10PlayerList11playerCheckENSt3__112basic_stringIcNS0_11char_traitsIcEENS0_9allocatorIcEEEEi, symObjAddr: 0x1EBC, symBinAddr: 0x10000F620, symSize: 0x3A8 }
  - { offsetInCU: 0x123FB, offset: 0x4FB38, size: 0x8, addend: 0x0, symName: __ZN10PlayerList12removePlayerENSt3__112basic_stringIcNS0_11char_traitsIcEENS0_9allocatorIcEEEES6_, symObjAddr: 0x22CC, symBinAddr: 0x10000F9DC, symSize: 0x1158 }
  - { offsetInCU: 0x126AC, offset: 0x4FDE9, size: 0x8, addend: 0x0, symName: __ZNSt3__16vectorI7PlayersNS_9allocatorIS1_EEE5eraseB7v160006ENS_11__wrap_iterIPKS1_EE, symObjAddr: 0x3424, symBinAddr: 0x100010B34, symSize: 0xAC }
  - { offsetInCU: 0x12701, offset: 0x4FE3E, size: 0x8, addend: 0x0, symName: __ZNSt3__16vectorI7PlayersNS_9allocatorIS1_EEE5beginB7v160006Ev, symObjAddr: 0x34D0, symBinAddr: 0x100010BE0, symSize: 0x30 }
  - { offsetInCU: 0x12729, offset: 0x4FE66, size: 0x8, addend: 0x0, symName: __ZNKSt3__111__wrap_iterIP7PlayersEplB7v160006El, symObjAddr: 0x3500, symBinAddr: 0x100010C10, symSize: 0x3C }
  - { offsetInCU: 0x12775, offset: 0x4FEB2, size: 0x8, addend: 0x0, symName: __ZNSt3__111__wrap_iterIPK7PlayersEC1B7v160006IPS1_EERKNS0_IT_EEPNS_9enable_ifIXsr14is_convertibleIS7_S3_EE5valueEvE4typeE, symObjAddr: 0x353C, symBinAddr: 0x100010C4C, symSize: 0x3C }
  - { offsetInCU: 0x127C0, offset: 0x4FEFD, size: 0x8, addend: 0x0, symName: __ZN10PlayerList9printListEv, symObjAddr: 0x3578, symBinAddr: 0x100010C88, symSize: 0x1B8 }
  - { offsetInCU: 0x12822, offset: 0x4FF5F, size: 0x8, addend: 0x0, symName: __ZN10PlayerList13printTemplateEv, symObjAddr: 0x3730, symBinAddr: 0x100010E40, symSize: 0x18C }
  - { offsetInCU: 0x1284B, offset: 0x4FF88, size: 0x8, addend: 0x0, symName: __ZN10PlayerList9printTeamENSt3__112basic_stringIcNS0_11char_traitsIcEENS0_9allocatorIcEEEE, symObjAddr: 0x3908, symBinAddr: 0x100010FCC, symSize: 0x630 }
  - { offsetInCU: 0x129BF, offset: 0x500FC, size: 0x8, addend: 0x0, symName: __ZN10PlayerList11printPlayerENSt3__112basic_stringIcNS0_11char_traitsIcEENS0_9allocatorIcEEEE, symObjAddr: 0x3F38, symBinAddr: 0x1000115FC, symSize: 0x304 }
  - { offsetInCU: 0x12A3A, offset: 0x50177, size: 0x8, addend: 0x0, symName: __ZN10PlayerList10topScorersEv, symObjAddr: 0x423C, symBinAddr: 0x100011900, symSize: 0xB58 }
  - { offsetInCU: 0x12C0A, offset: 0x50347, size: 0x8, addend: 0x0, symName: __ZNKSt3__16vectorI7PlayersNS_9allocatorIS1_EEE5emptyB7v160006Ev, symObjAddr: 0x4D94, symBinAddr: 0x100012458, symSize: 0x28 }
  - { offsetInCU: 0x12C30, offset: 0x5036D, size: 0x8, addend: 0x0, symName: __ZN10PlayerList8printTopENSt3__16vectorI7PlayersNS0_9allocatorIS2_EEEE, symObjAddr: 0x4E2C, symBinAddr: 0x100012480, symSize: 0x320 }
  - { offsetInCU: 0x12C7E, offset: 0x503BB, size: 0x8, addend: 0x0, symName: __ZN10PlayerList6toFileENSt3__112basic_stringIcNS0_11char_traitsIcEENS0_9allocatorIcEEEE, symObjAddr: 0x5328, symBinAddr: 0x1000127A0, symSize: 0x17C }
  - { offsetInCU: 0x12D00, offset: 0x5043D, size: 0x8, addend: 0x0, symName: __ZNSt3__111__wrap_iterIP7PlayersEpLB7v160006El, symObjAddr: 0x576C, symBinAddr: 0x10001291C, symSize: 0x30 }
  - { offsetInCU: 0x12D34, offset: 0x50471, size: 0x8, addend: 0x0, symName: __ZNSt3__111__wrap_iterIPK7PlayersEC2B7v160006IPS1_EERKNS0_IT_EEPNS_9enable_ifIXsr14is_convertibleIS7_S3_EE5valueEvE4typeE, symObjAddr: 0x579C, symBinAddr: 0x10001294C, symSize: 0x40 }
  - { offsetInCU: 0x12D7F, offset: 0x504BC, size: 0x8, addend: 0x0, symName: __ZNKSt3__111__wrap_iterIP7PlayersE4baseB7v160006Ev, symObjAddr: 0x57DC, symBinAddr: 0x10001298C, symSize: 0x18 }
  - { offsetInCU: 0x12DAB, offset: 0x504E8, size: 0x8, addend: 0x0, symName: __ZNSt3__16vectorI7PlayersNS_9allocatorIS1_EEEC2B7v160006Ev, symObjAddr: 0x6050, symBinAddr: 0x1000129A4, symSize: 0x58 }
  - { offsetInCU: 0x12DDB, offset: 0x50518, size: 0x8, addend: 0x0, symName: __ZNSt3__117__compressed_pairIP7PlayersNS_9allocatorIS1_EEEC1B7v160006IDnNS_18__default_init_tagEEEOT_OT0_, symObjAddr: 0x60A8, symBinAddr: 0x1000129FC, symSize: 0x3C }
  - { offsetInCU: 0x12E33, offset: 0x50570, size: 0x8, addend: 0x0, symName: __ZNSt3__117__compressed_pairIP7PlayersNS_9allocatorIS1_EEEC2B7v160006IDnNS_18__default_init_tagEEEOT_OT0_, symObjAddr: 0x60F4, symBinAddr: 0x100012A38, symSize: 0x40 }
  - { offsetInCU: 0x12E8B, offset: 0x505C8, size: 0x8, addend: 0x0, symName: __ZNSt3__122__compressed_pair_elemINS_9allocatorI7PlayersEELi1ELb1EEC2B7v160006ENS_18__default_init_tagE, symObjAddr: 0x6150, symBinAddr: 0x100012A78, symSize: 0x2C }
  - { offsetInCU: 0x12EBF, offset: 0x505FC, size: 0x8, addend: 0x0, symName: __ZNSt3__19allocatorI7PlayersEC2B7v160006Ev, symObjAddr: 0x617C, symBinAddr: 0x100012AA4, symSize: 0x2C }
  - { offsetInCU: 0x12EE9, offset: 0x50626, size: 0x8, addend: 0x0, symName: __ZNSt3__116__non_trivial_ifILb1ENS_9allocatorI7PlayersEEEC2B7v160006Ev, symObjAddr: 0x61A8, symBinAddr: 0x100012AD0, symSize: 0x14 }
  - { offsetInCU: 0x12F13, offset: 0x50650, size: 0x8, addend: 0x0, symName: __ZNSt3__16vectorINS0_I7PlayersNS_9allocatorIS1_EEEENS2_IS4_EEEC2B7v160006Ev, symObjAddr: 0x61BC, symBinAddr: 0x100012AE4, symSize: 0x58 }
  - { offsetInCU: 0x12F3D, offset: 0x5067A, size: 0x8, addend: 0x0, symName: __ZNSt3__117__compressed_pairIPNS_6vectorI7PlayersNS_9allocatorIS2_EEEENS3_IS5_EEEC1B7v160006IDnNS_18__default_init_tagEEEOT_OT0_, symObjAddr: 0x6214, symBinAddr: 0x100012B3C, symSize: 0x3C }
  - { offsetInCU: 0x12F95, offset: 0x506D2, size: 0x8, addend: 0x0, symName: __ZNSt3__117__compressed_pairIPNS_6vectorI7PlayersNS_9allocatorIS2_EEEENS3_IS5_EEEC2B7v160006IDnNS_18__default_init_tagEEEOT_OT0_, symObjAddr: 0x6260, symBinAddr: 0x100012B78, symSize: 0x40 }
  - { offsetInCU: 0x12FED, offset: 0x5072A, size: 0x8, addend: 0x0, symName: __ZNSt3__122__compressed_pair_elemINS_9allocatorINS_6vectorI7PlayersNS1_IS3_EEEEEELi1ELb1EEC2B7v160006ENS_18__default_init_tagE, symObjAddr: 0x62BC, symBinAddr: 0x100012BB8, symSize: 0x2C }
  - { offsetInCU: 0x13021, offset: 0x5075E, size: 0x8, addend: 0x0, symName: __ZNSt3__19allocatorINS_6vectorI7PlayersNS0_IS2_EEEEEC2B7v160006Ev, symObjAddr: 0x62E8, symBinAddr: 0x100012BE4, symSize: 0x2C }
  - { offsetInCU: 0x1304B, offset: 0x50788, size: 0x8, addend: 0x0, symName: __ZNSt3__116__non_trivial_ifILb1ENS_9allocatorINS_6vectorI7PlayersNS1_IS3_EEEEEEEC2B7v160006Ev, symObjAddr: 0x6314, symBinAddr: 0x100012C10, symSize: 0x14 }
  - { offsetInCU: 0x130B1, offset: 0x507EE, size: 0x8, addend: 0x0, symName: __ZNSt3__16vectorINS0_I7PlayersNS_9allocatorIS1_EEEENS2_IS4_EEE22__construct_one_at_endB7v160006IJRKS4_EEEvDpOT_, symObjAddr: 0x7BEC, symBinAddr: 0x100012C24, symSize: 0x90 }
  - { offsetInCU: 0x13100, offset: 0x5083D, size: 0x8, addend: 0x0, symName: __ZNSt3__16vectorINS0_I7PlayersNS_9allocatorIS1_EEEENS2_IS4_EEE21__push_back_slow_pathIRKS4_EEvOT_, symObjAddr: 0x7C7C, symBinAddr: 0x100012CB4, symSize: 0xD8 }
  - { offsetInCU: 0x13177, offset: 0x508B4, size: 0x8, addend: 0x0, symName: __ZNSt3__116allocator_traitsINS_9allocatorINS_6vectorI7PlayersNS1_IS3_EEEEEEE9constructB7v160006IS5_JRKS5_EvEEvRS6_PT_DpOT0_, symObjAddr: 0x7DC8, symBinAddr: 0x100012D8C, symSize: 0x34 }
  - { offsetInCU: 0x131CE, offset: 0x5090B, size: 0x8, addend: 0x0, symName: __ZNSt3__19allocatorINS_6vectorI7PlayersNS0_IS2_EEEEE9constructB7v160006IS4_JRKS4_EEEvPT_DpOT0_, symObjAddr: 0x7E74, symBinAddr: 0x100012DC0, symSize: 0x30 }
  - { offsetInCU: 0x13224, offset: 0x50961, size: 0x8, addend: 0x0, symName: __ZNSt3__114__split_bufferINS_6vectorI7PlayersNS_9allocatorIS2_EEEERNS3_IS5_EEEC1EmmS7_, symObjAddr: 0x7F78, symBinAddr: 0x100012DF0, symSize: 0x44 }
  - { offsetInCU: 0x1327A, offset: 0x509B7, size: 0x8, addend: 0x0, symName: __ZNSt3__114__split_bufferINS_6vectorI7PlayersNS_9allocatorIS2_EEEERNS3_IS5_EEED1Ev, symObjAddr: 0x80D4, symBinAddr: 0x100012F4C, symSize: 0x2C }
  - { offsetInCU: 0x132B0, offset: 0x509ED, size: 0x8, addend: 0x0, symName: __ZNSt3__114__split_bufferINS_6vectorI7PlayersNS_9allocatorIS2_EEEERNS3_IS5_EEEC2EmmS7_, symObjAddr: 0x844C, symBinAddr: 0x100012F78, symSize: 0xE0 }
  - { offsetInCU: 0x13323, offset: 0x50A60, size: 0x8, addend: 0x0, symName: __ZNSt3__117__compressed_pairIPNS_6vectorI7PlayersNS_9allocatorIS2_EEEERNS3_IS5_EEEC1B7v160006IDnS8_EEOT_OT0_, symObjAddr: 0x852C, symBinAddr: 0x100013058, symSize: 0x3C }
  - { offsetInCU: 0x1337B, offset: 0x50AB8, size: 0x8, addend: 0x0, symName: __ZNSt3__114__split_bufferINS_6vectorI7PlayersNS_9allocatorIS2_EEEERNS3_IS5_EEE7__allocB7v160006Ev, symObjAddr: 0x85A8, symBinAddr: 0x100013094, symSize: 0x28 }
  - { offsetInCU: 0x133A1, offset: 0x50ADE, size: 0x8, addend: 0x0, symName: __ZNSt3__114__split_bufferINS_6vectorI7PlayersNS_9allocatorIS2_EEEERNS3_IS5_EEE9__end_capB7v160006Ev, symObjAddr: 0x85D0, symBinAddr: 0x1000130BC, symSize: 0x28 }
  - { offsetInCU: 0x133C7, offset: 0x50B04, size: 0x8, addend: 0x0, symName: __ZNSt3__117__compressed_pairIPNS_6vectorI7PlayersNS_9allocatorIS2_EEEERNS3_IS5_EEEC2B7v160006IDnS8_EEOT_OT0_, symObjAddr: 0x85F8, symBinAddr: 0x1000130E4, symSize: 0x48 }
  - { offsetInCU: 0x1341F, offset: 0x50B5C, size: 0x8, addend: 0x0, symName: __ZNSt3__122__compressed_pair_elemIRNS_9allocatorINS_6vectorI7PlayersNS1_IS3_EEEEEELi1ELb0EEC2B7v160006IS7_vEEOT_, symObjAddr: 0x8640, symBinAddr: 0x10001312C, symSize: 0x20 }
  - { offsetInCU: 0x13461, offset: 0x50B9E, size: 0x8, addend: 0x0, symName: __ZNSt3__117__compressed_pairIPNS_6vectorI7PlayersNS_9allocatorIS2_EEEERNS3_IS5_EEE6secondB7v160006Ev, symObjAddr: 0x87A0, symBinAddr: 0x10001314C, symSize: 0x28 }
  - { offsetInCU: 0x13487, offset: 0x50BC4, size: 0x8, addend: 0x0, symName: __ZNSt3__122__compressed_pair_elemIRNS_9allocatorINS_6vectorI7PlayersNS1_IS3_EEEEEELi1ELb0EE5__getB7v160006Ev, symObjAddr: 0x87C8, symBinAddr: 0x100013174, symSize: 0x18 }
  - { offsetInCU: 0x134AD, offset: 0x50BEA, size: 0x8, addend: 0x0, symName: __ZNSt3__117__compressed_pairIPNS_6vectorI7PlayersNS_9allocatorIS2_EEEERNS3_IS5_EEE5firstB7v160006Ev, symObjAddr: 0x87E0, symBinAddr: 0x10001318C, symSize: 0x24 }
  - { offsetInCU: 0x134D3, offset: 0x50C10, size: 0x8, addend: 0x0, symName: __ZNSt3__129_AllocatorDestroyRangeReverseINS_9allocatorINS_6vectorI7PlayersNS1_IS3_EEEEEENS_16reverse_iteratorIPS5_EEEC1B7v160006ERS6_RS9_SC_, symObjAddr: 0x8ADC, symBinAddr: 0x100013364, symSize: 0x44 }
  - { offsetInCU: 0x1352A, offset: 0x50C67, size: 0x8, addend: 0x0, symName: __ZNSt3__116allocator_traitsINS_9allocatorINS_6vectorI7PlayersNS1_IS3_EEEEEEE9constructB7v160006IS5_JS5_EvEEvRS6_PT_DpOT0_, symObjAddr: 0x8B68, symBinAddr: 0x1000133A8, symSize: 0x34 }
  - { offsetInCU: 0x13581, offset: 0x50CBE, size: 0x8, addend: 0x0, symName: __ZNSt3__128__exception_guard_exceptionsINS_29_AllocatorDestroyRangeReverseINS_9allocatorINS_6vectorI7PlayersNS2_IS4_EEEEEENS_16reverse_iteratorIPS6_EEEEE10__completeB7v160006Ev, symObjAddr: 0x8C08, symBinAddr: 0x1000133DC, symSize: 0x1C }
  - { offsetInCU: 0x135A7, offset: 0x50CE4, size: 0x8, addend: 0x0, symName: __ZNSt3__128__exception_guard_exceptionsINS_29_AllocatorDestroyRangeReverseINS_9allocatorINS_6vectorI7PlayersNS2_IS4_EEEEEENS_16reverse_iteratorIPS6_EEEEED1B7v160006Ev, symObjAddr: 0x8C24, symBinAddr: 0x1000133F8, symSize: 0x2C }
  - { offsetInCU: 0x135D1, offset: 0x50D0E, size: 0x8, addend: 0x0, symName: __ZNSt3__128__exception_guard_exceptionsINS_29_AllocatorDestroyRangeReverseINS_9allocatorINS_6vectorI7PlayersNS2_IS4_EEEEEENS_16reverse_iteratorIPS6_EEEEEC1B7v160006ESB_, symObjAddr: 0x8C50, symBinAddr: 0x100013424, symSize: 0x34 }
  - { offsetInCU: 0x1360A, offset: 0x50D47, size: 0x8, addend: 0x0, symName: __ZNSt3__128__exception_guard_exceptionsINS_29_AllocatorDestroyRangeReverseINS_9allocatorINS_6vectorI7PlayersNS2_IS4_EEEEEENS_16reverse_iteratorIPS6_EEEEEC2B7v160006ESB_, symObjAddr: 0x8C84, symBinAddr: 0x100013458, symSize: 0x30 }
  - { offsetInCU: 0x13643, offset: 0x50D80, size: 0x8, addend: 0x0, symName: __ZNSt3__129_AllocatorDestroyRangeReverseINS_9allocatorINS_6vectorI7PlayersNS1_IS3_EEEEEENS_16reverse_iteratorIPS5_EEEC2B7v160006ERS6_RS9_SC_, symObjAddr: 0x8CB4, symBinAddr: 0x100013488, symSize: 0x38 }
  - { offsetInCU: 0x1369A, offset: 0x50DD7, size: 0x8, addend: 0x0, symName: __ZNSt3__19allocatorINS_6vectorI7PlayersNS0_IS2_EEEEE9constructB7v160006IS4_JS4_EEEvPT_DpOT0_, symObjAddr: 0x8CEC, symBinAddr: 0x1000134C0, symSize: 0x30 }
  - { offsetInCU: 0x136F0, offset: 0x50E2D, size: 0x8, addend: 0x0, symName: __ZNSt3__16vectorI7PlayersNS_9allocatorIS1_EEEC1B7v160006EOS4_, symObjAddr: 0x8D1C, symBinAddr: 0x1000134F0, symSize: 0x34 }
  - { offsetInCU: 0x1372B, offset: 0x50E68, size: 0x8, addend: 0x0, symName: __ZNSt3__16vectorI7PlayersNS_9allocatorIS1_EEEC2B7v160006EOS4_, symObjAddr: 0x8D50, symBinAddr: 0x100013524, symSize: 0xDC }
  - { offsetInCU: 0x1376C, offset: 0x50EA9, size: 0x8, addend: 0x0, symName: __ZNSt3__128__exception_guard_exceptionsINS_29_AllocatorDestroyRangeReverseINS_9allocatorINS_6vectorI7PlayersNS2_IS4_EEEEEENS_16reverse_iteratorIPS6_EEEEED2B7v160006Ev, symObjAddr: 0x8F94, symBinAddr: 0x100013614, symSize: 0x50 }
  - { offsetInCU: 0x13796, offset: 0x50ED3, size: 0x8, addend: 0x0, symName: __ZNKSt3__129_AllocatorDestroyRangeReverseINS_9allocatorINS_6vectorI7PlayersNS1_IS3_EEEEEENS_16reverse_iteratorIPS5_EEEclB7v160006Ev, symObjAddr: 0x8FE4, symBinAddr: 0x100013664, symSize: 0xB4 }
  - { offsetInCU: 0x137BD, offset: 0x50EFA, size: 0x8, addend: 0x0, symName: __ZNSt3__116reverse_iteratorINS0_IPNS_6vectorI7PlayersNS_9allocatorIS2_EEEEEEEC1B7v160006ES7_, symObjAddr: 0x9108, symBinAddr: 0x100013788, symSize: 0x3C }
  - { offsetInCU: 0x137F5, offset: 0x50F32, size: 0x8, addend: 0x0, symName: __ZNSt3__116reverse_iteratorINS0_IPNS_6vectorI7PlayersNS_9allocatorIS2_EEEEEEEppB7v160006Ev, symObjAddr: 0x91C8, symBinAddr: 0x100013848, symSize: 0x30 }
  - { offsetInCU: 0x1381B, offset: 0x50F58, size: 0x8, addend: 0x0, symName: __ZNKSt3__116reverse_iteratorINS0_IPNS_6vectorI7PlayersNS_9allocatorIS2_EEEEEEE4baseB7v160006Ev, symObjAddr: 0x91F8, symBinAddr: 0x100013878, symSize: 0x24 }
  - { offsetInCU: 0x13846, offset: 0x50F83, size: 0x8, addend: 0x0, symName: __ZNSt3__119__to_address_helperINS_16reverse_iteratorINS1_IPNS_6vectorI7PlayersNS_9allocatorIS3_EEEEEEEEvE6__callB7v160006ERKS9_, symObjAddr: 0x921C, symBinAddr: 0x10001389C, symSize: 0x38 }
  - { offsetInCU: 0x13869, offset: 0x50FA6, size: 0x8, addend: 0x0, symName: __ZNKSt3__116reverse_iteratorINS0_IPNS_6vectorI7PlayersNS_9allocatorIS2_EEEEEEEptB7v160006Ev, symObjAddr: 0x9254, symBinAddr: 0x1000138D4, symSize: 0x24 }
  - { offsetInCU: 0x1388F, offset: 0x50FCC, size: 0x8, addend: 0x0, symName: __ZNKSt3__116reverse_iteratorINS0_IPNS_6vectorI7PlayersNS_9allocatorIS2_EEEEEEEdeB7v160006Ev, symObjAddr: 0x9278, symBinAddr: 0x1000138F8, symSize: 0x34 }
  - { offsetInCU: 0x138C3, offset: 0x51000, size: 0x8, addend: 0x0, symName: __ZNSt3__116reverse_iteratorIPNS_6vectorI7PlayersNS_9allocatorIS2_EEEEEmmB7v160006Ev, symObjAddr: 0x92AC, symBinAddr: 0x10001392C, symSize: 0x20 }
  - { offsetInCU: 0x138E9, offset: 0x51026, size: 0x8, addend: 0x0, symName: __ZNSt3__116reverse_iteratorINS0_IPNS_6vectorI7PlayersNS_9allocatorIS2_EEEEEEEC2B7v160006ES7_, symObjAddr: 0x92CC, symBinAddr: 0x10001394C, symSize: 0x2C }
  - { offsetInCU: 0x13921, offset: 0x5105E, size: 0x8, addend: 0x0, symName: __ZNSt3__114__split_bufferINS_6vectorI7PlayersNS_9allocatorIS2_EEEERNS3_IS5_EEED2Ev, symObjAddr: 0x9320, symBinAddr: 0x100013978, symSize: 0x8C }
  - { offsetInCU: 0x1394D, offset: 0x5108A, size: 0x8, addend: 0x0, symName: __ZNSt3__114__split_bufferINS_6vectorI7PlayersNS_9allocatorIS2_EEEERNS3_IS5_EEE5clearB7v160006Ev, symObjAddr: 0x93AC, symBinAddr: 0x100013A04, symSize: 0x28 }
  - { offsetInCU: 0x13973, offset: 0x510B0, size: 0x8, addend: 0x0, symName: __ZNKSt3__114__split_bufferINS_6vectorI7PlayersNS_9allocatorIS2_EEEERNS3_IS5_EEE8capacityB7v160006Ev, symObjAddr: 0x93D4, symBinAddr: 0x100013A2C, symSize: 0x40 }
  - { offsetInCU: 0x13999, offset: 0x510D6, size: 0x8, addend: 0x0, symName: __ZNSt3__114__split_bufferINS_6vectorI7PlayersNS_9allocatorIS2_EEEERNS3_IS5_EEE17__destruct_at_endB7v160006EPS5_, symObjAddr: 0x9414, symBinAddr: 0x100013A6C, symSize: 0x2C }
  - { offsetInCU: 0x139CD, offset: 0x5110A, size: 0x8, addend: 0x0, symName: __ZNSt3__114__split_bufferINS_6vectorI7PlayersNS_9allocatorIS2_EEEERNS3_IS5_EEE17__destruct_at_endB7v160006EPS5_NS_17integral_constantIbLb0EEE, symObjAddr: 0x9440, symBinAddr: 0x100013A98, symSize: 0x80 }
  - { offsetInCU: 0x13A0D, offset: 0x5114A, size: 0x8, addend: 0x0, symName: __ZNKSt3__114__split_bufferINS_6vectorI7PlayersNS_9allocatorIS2_EEEERNS3_IS5_EEE9__end_capB7v160006Ev, symObjAddr: 0x94C0, symBinAddr: 0x100013B18, symSize: 0x28 }
  - { offsetInCU: 0x13A33, offset: 0x51170, size: 0x8, addend: 0x0, symName: __ZNKSt3__117__compressed_pairIPNS_6vectorI7PlayersNS_9allocatorIS2_EEEERNS3_IS5_EEE5firstB7v160006Ev, symObjAddr: 0x94E8, symBinAddr: 0x100013B40, symSize: 0x24 }
  - { offsetInCU: 0x13A5F, offset: 0x5119C, size: 0x8, addend: 0x0, symName: __ZNSt3__16vectorI7PlayersNS_9allocatorIS1_EEE22__construct_one_at_endB7v160006IJRKS1_EEEvDpOT_, symObjAddr: 0xA150, symBinAddr: 0x100013B64, symSize: 0x90 }
  - { offsetInCU: 0x13AAE, offset: 0x511EB, size: 0x8, addend: 0x0, symName: __ZNSt3__16vectorI7PlayersNS_9allocatorIS1_EEE21__push_back_slow_pathIRKS1_EEvOT_, symObjAddr: 0xA1E0, symBinAddr: 0x100013BF4, symSize: 0xD8 }
  - { offsetInCU: 0x13B25, offset: 0x51262, size: 0x8, addend: 0x0, symName: __ZNSt3__116allocator_traitsINS_9allocatorI7PlayersEEE9constructB7v160006IS2_JRKS2_EvEEvRS3_PT_DpOT0_, symObjAddr: 0xA2F4, symBinAddr: 0x100013CCC, symSize: 0x34 }
  - { offsetInCU: 0x13B7C, offset: 0x512B9, size: 0x8, addend: 0x0, symName: __ZNSt3__19allocatorI7PlayersE9constructB7v160006IS1_JRKS1_EEEvPT_DpOT0_, symObjAddr: 0xA3A0, symBinAddr: 0x100013D00, symSize: 0x30 }
  - { offsetInCU: 0x13BD2, offset: 0x5130F, size: 0x8, addend: 0x0, symName: __ZNSt3__114__split_bufferI7PlayersRNS_9allocatorIS1_EEEC1EmmS4_, symObjAddr: 0xA4A4, symBinAddr: 0x100013D30, symSize: 0x44 }
  - { offsetInCU: 0x13C28, offset: 0x51365, size: 0x8, addend: 0x0, symName: __ZNSt3__114__split_bufferI7PlayersRNS_9allocatorIS1_EEED1Ev, symObjAddr: 0xA600, symBinAddr: 0x100013E8C, symSize: 0x2C }
  - { offsetInCU: 0x13C5E, offset: 0x5139B, size: 0x8, addend: 0x0, symName: __ZNSt3__114__split_bufferI7PlayersRNS_9allocatorIS1_EEEC2EmmS4_, symObjAddr: 0xA744, symBinAddr: 0x100013EB8, symSize: 0xE0 }
  - { offsetInCU: 0x13CD1, offset: 0x5140E, size: 0x8, addend: 0x0, symName: __ZNSt3__117__compressed_pairIP7PlayersRNS_9allocatorIS1_EEEC1B7v160006IDnS5_EEOT_OT0_, symObjAddr: 0xA824, symBinAddr: 0x100013F98, symSize: 0x3C }
  - { offsetInCU: 0x13D29, offset: 0x51466, size: 0x8, addend: 0x0, symName: __ZNSt3__114__split_bufferI7PlayersRNS_9allocatorIS1_EEE7__allocB7v160006Ev, symObjAddr: 0xA8A0, symBinAddr: 0x100013FD4, symSize: 0x28 }
  - { offsetInCU: 0x13D4F, offset: 0x5148C, size: 0x8, addend: 0x0, symName: __ZNSt3__114__split_bufferI7PlayersRNS_9allocatorIS1_EEE9__end_capB7v160006Ev, symObjAddr: 0xA8C8, symBinAddr: 0x100013FFC, symSize: 0x28 }
  - { offsetInCU: 0x13D75, offset: 0x514B2, size: 0x8, addend: 0x0, symName: __ZNSt3__117__compressed_pairIP7PlayersRNS_9allocatorIS1_EEEC2B7v160006IDnS5_EEOT_OT0_, symObjAddr: 0xA8F0, symBinAddr: 0x100014024, symSize: 0x48 }
  - { offsetInCU: 0x13DCD, offset: 0x5150A, size: 0x8, addend: 0x0, symName: __ZNSt3__122__compressed_pair_elemIRNS_9allocatorI7PlayersEELi1ELb0EEC2B7v160006IS4_vEEOT_, symObjAddr: 0xA938, symBinAddr: 0x10001406C, symSize: 0x20 }
  - { offsetInCU: 0x13E0F, offset: 0x5154C, size: 0x8, addend: 0x0, symName: __ZNSt3__117__compressed_pairIP7PlayersRNS_9allocatorIS1_EEE6secondB7v160006Ev, symObjAddr: 0xA9B4, symBinAddr: 0x10001408C, symSize: 0x28 }
  - { offsetInCU: 0x13E35, offset: 0x51572, size: 0x8, addend: 0x0, symName: __ZNSt3__122__compressed_pair_elemIRNS_9allocatorI7PlayersEELi1ELb0EE5__getB7v160006Ev, symObjAddr: 0xA9DC, symBinAddr: 0x1000140B4, symSize: 0x18 }
  - { offsetInCU: 0x13E5B, offset: 0x51598, size: 0x8, addend: 0x0, symName: __ZNSt3__117__compressed_pairIP7PlayersRNS_9allocatorIS1_EEE5firstB7v160006Ev, symObjAddr: 0xA9F4, symBinAddr: 0x1000140CC, symSize: 0x24 }
  - { offsetInCU: 0x13E81, offset: 0x515BE, size: 0x8, addend: 0x0, symName: __ZNSt3__129_AllocatorDestroyRangeReverseINS_9allocatorI7PlayersEENS_16reverse_iteratorIPS2_EEEC1B7v160006ERS3_RS6_S9_, symObjAddr: 0xACF0, symBinAddr: 0x1000142A4, symSize: 0x44 }
  - { offsetInCU: 0x13ED8, offset: 0x51615, size: 0x8, addend: 0x0, symName: __ZNSt3__128__exception_guard_exceptionsINS_29_AllocatorDestroyRangeReverseINS_9allocatorI7PlayersEENS_16reverse_iteratorIPS3_EEEEE10__completeB7v160006Ev, symObjAddr: 0xADE8, symBinAddr: 0x1000142E8, symSize: 0x1C }
  - { offsetInCU: 0x13EFE, offset: 0x5163B, size: 0x8, addend: 0x0, symName: __ZNSt3__128__exception_guard_exceptionsINS_29_AllocatorDestroyRangeReverseINS_9allocatorI7PlayersEENS_16reverse_iteratorIPS3_EEEEED1B7v160006Ev, symObjAddr: 0xAE04, symBinAddr: 0x100014304, symSize: 0x2C }
  - { offsetInCU: 0x13F28, offset: 0x51665, size: 0x8, addend: 0x0, symName: __ZNSt3__128__exception_guard_exceptionsINS_29_AllocatorDestroyRangeReverseINS_9allocatorI7PlayersEENS_16reverse_iteratorIPS3_EEEEEC1B7v160006ES8_, symObjAddr: 0xAE30, symBinAddr: 0x100014330, symSize: 0x34 }
  - { offsetInCU: 0x13F61, offset: 0x5169E, size: 0x8, addend: 0x0, symName: __ZNSt3__128__exception_guard_exceptionsINS_29_AllocatorDestroyRangeReverseINS_9allocatorI7PlayersEENS_16reverse_iteratorIPS3_EEEEEC2B7v160006ES8_, symObjAddr: 0xAE64, symBinAddr: 0x100014364, symSize: 0x30 }
  - { offsetInCU: 0x13F9A, offset: 0x516D7, size: 0x8, addend: 0x0, symName: __ZNSt3__129_AllocatorDestroyRangeReverseINS_9allocatorI7PlayersEENS_16reverse_iteratorIPS2_EEEC2B7v160006ERS3_RS6_S9_, symObjAddr: 0xAE94, symBinAddr: 0x100014394, symSize: 0x38 }
  - { offsetInCU: 0x13FF1, offset: 0x5172E, size: 0x8, addend: 0x0, symName: __ZNSt3__128__exception_guard_exceptionsINS_29_AllocatorDestroyRangeReverseINS_9allocatorI7PlayersEENS_16reverse_iteratorIPS3_EEEEED2B7v160006Ev, symObjAddr: 0xAF28, symBinAddr: 0x1000143CC, symSize: 0x50 }
  - { offsetInCU: 0x1401B, offset: 0x51758, size: 0x8, addend: 0x0, symName: __ZNKSt3__129_AllocatorDestroyRangeReverseINS_9allocatorI7PlayersEENS_16reverse_iteratorIPS2_EEEclB7v160006Ev, symObjAddr: 0xAF78, symBinAddr: 0x10001441C, symSize: 0xB4 }
  - { offsetInCU: 0x14042, offset: 0x5177F, size: 0x8, addend: 0x0, symName: __ZNSt3__116reverse_iteratorINS0_IP7PlayersEEEC1B7v160006ES3_, symObjAddr: 0xB09C, symBinAddr: 0x100014540, symSize: 0x3C }
  - { offsetInCU: 0x1407A, offset: 0x517B7, size: 0x8, addend: 0x0, symName: __ZNSt3__116reverse_iteratorINS0_IP7PlayersEEEppB7v160006Ev, symObjAddr: 0xB15C, symBinAddr: 0x100014600, symSize: 0x30 }
  - { offsetInCU: 0x140A0, offset: 0x517DD, size: 0x8, addend: 0x0, symName: __ZNKSt3__116reverse_iteratorINS0_IP7PlayersEEE4baseB7v160006Ev, symObjAddr: 0xB18C, symBinAddr: 0x100014630, symSize: 0x24 }
  - { offsetInCU: 0x140CB, offset: 0x51808, size: 0x8, addend: 0x0, symName: __ZNSt3__119__to_address_helperINS_16reverse_iteratorINS1_IP7PlayersEEEEvE6__callB7v160006ERKS5_, symObjAddr: 0xB1B0, symBinAddr: 0x100014654, symSize: 0x38 }
  - { offsetInCU: 0x140EE, offset: 0x5182B, size: 0x8, addend: 0x0, symName: __ZNKSt3__116reverse_iteratorINS0_IP7PlayersEEEptB7v160006Ev, symObjAddr: 0xB1E8, symBinAddr: 0x10001468C, symSize: 0x24 }
  - { offsetInCU: 0x14114, offset: 0x51851, size: 0x8, addend: 0x0, symName: __ZNKSt3__116reverse_iteratorINS0_IP7PlayersEEEdeB7v160006Ev, symObjAddr: 0xB20C, symBinAddr: 0x1000146B0, symSize: 0x34 }
  - { offsetInCU: 0x14148, offset: 0x51885, size: 0x8, addend: 0x0, symName: __ZNSt3__116reverse_iteratorIP7PlayersEmmB7v160006Ev, symObjAddr: 0xB240, symBinAddr: 0x1000146E4, symSize: 0x20 }
  - { offsetInCU: 0x1416E, offset: 0x518AB, size: 0x8, addend: 0x0, symName: __ZNSt3__116reverse_iteratorINS0_IP7PlayersEEEC2B7v160006ES3_, symObjAddr: 0xB260, symBinAddr: 0x100014704, symSize: 0x2C }
  - { offsetInCU: 0x141A6, offset: 0x518E3, size: 0x8, addend: 0x0, symName: __ZNSt3__114__split_bufferI7PlayersRNS_9allocatorIS1_EEED2Ev, symObjAddr: 0xB2B4, symBinAddr: 0x100014730, symSize: 0x8C }
  - { offsetInCU: 0x141D2, offset: 0x5190F, size: 0x8, addend: 0x0, symName: __ZNSt3__114__split_bufferI7PlayersRNS_9allocatorIS1_EEE5clearB7v160006Ev, symObjAddr: 0xB340, symBinAddr: 0x1000147BC, symSize: 0x28 }
  - { offsetInCU: 0x141F8, offset: 0x51935, size: 0x8, addend: 0x0, symName: __ZNKSt3__114__split_bufferI7PlayersRNS_9allocatorIS1_EEE8capacityB7v160006Ev, symObjAddr: 0xB368, symBinAddr: 0x1000147E4, symSize: 0x40 }
  - { offsetInCU: 0x1421E, offset: 0x5195B, size: 0x8, addend: 0x0, symName: __ZNSt3__114__split_bufferI7PlayersRNS_9allocatorIS1_EEE17__destruct_at_endB7v160006EPS1_, symObjAddr: 0xB3A8, symBinAddr: 0x100014824, symSize: 0x2C }
  - { offsetInCU: 0x14252, offset: 0x5198F, size: 0x8, addend: 0x0, symName: __ZNSt3__114__split_bufferI7PlayersRNS_9allocatorIS1_EEE17__destruct_at_endB7v160006EPS1_NS_17integral_constantIbLb0EEE, symObjAddr: 0xB3D4, symBinAddr: 0x100014850, symSize: 0x80 }
  - { offsetInCU: 0x14292, offset: 0x519CF, size: 0x8, addend: 0x0, symName: __ZNKSt3__114__split_bufferI7PlayersRNS_9allocatorIS1_EEE9__end_capB7v160006Ev, symObjAddr: 0xB454, symBinAddr: 0x1000148D0, symSize: 0x28 }
  - { offsetInCU: 0x142B8, offset: 0x519F5, size: 0x8, addend: 0x0, symName: __ZNKSt3__117__compressed_pairIP7PlayersRNS_9allocatorIS1_EEE5firstB7v160006Ev, symObjAddr: 0xB47C, symBinAddr: 0x1000148F8, symSize: 0x24 }
  - { offsetInCU: 0x142DE, offset: 0x51A1B, size: 0x8, addend: 0x0, symName: __ZNSt3__16vectorI7PlayersNS_9allocatorIS1_EEE11__make_iterB7v160006EPS1_, symObjAddr: 0xB4A0, symBinAddr: 0x10001491C, symSize: 0x34 }
  - { offsetInCU: 0x14313, offset: 0x51A50, size: 0x8, addend: 0x0, symName: __ZNSt3__111__wrap_iterIP7PlayersEC1B7v160006EPKvS2_, symObjAddr: 0xB4D4, symBinAddr: 0x100014950, symSize: 0x3C }
  - { offsetInCU: 0x14359, offset: 0x51A96, size: 0x8, addend: 0x0, symName: __ZNSt3__111__wrap_iterIP7PlayersEC2B7v160006EPKvS2_, symObjAddr: 0xB510, symBinAddr: 0x10001498C, symSize: 0x24 }
  - { offsetInCU: 0x1439F, offset: 0x51ADC, size: 0x8, addend: 0x0, symName: __ZNKSt3__16vectorI7PlayersNS_9allocatorIS1_EEE6cbeginB7v160006Ev, symObjAddr: 0xB57C, symBinAddr: 0x1000149F8, symSize: 0x2C }
  - { offsetInCU: 0x143C5, offset: 0x51B02, size: 0x8, addend: 0x0, symName: __ZNKSt3__111__wrap_iterIPK7PlayersE4baseB7v160006Ev, symObjAddr: 0xB65C, symBinAddr: 0x100014A64, symSize: 0x18 }
  - { offsetInCU: 0x143EB, offset: 0x51B28, size: 0x8, addend: 0x0, symName: __ZNKSt3__16vectorI7PlayersNS_9allocatorIS1_EEE5beginB7v160006Ev, symObjAddr: 0xB674, symBinAddr: 0x100014A7C, symSize: 0x30 }
  - { offsetInCU: 0x14413, offset: 0x51B50, size: 0x8, addend: 0x0, symName: __ZNKSt3__16vectorI7PlayersNS_9allocatorIS1_EEE11__make_iterB7v160006EPKS1_, symObjAddr: 0xB6A4, symBinAddr: 0x100014AAC, symSize: 0x34 }
  - { offsetInCU: 0x14448, offset: 0x51B85, size: 0x8, addend: 0x0, symName: __ZNSt3__111__wrap_iterIPK7PlayersEC1B7v160006EPKvS3_, symObjAddr: 0xB6D8, symBinAddr: 0x100014AE0, symSize: 0x3C }
  - { offsetInCU: 0x1448E, offset: 0x51BCB, size: 0x8, addend: 0x0, symName: __ZNSt3__111__wrap_iterIPK7PlayersEC2B7v160006EPKvS3_, symObjAddr: 0xB714, symBinAddr: 0x100014B1C, symSize: 0x24 }
  - { offsetInCU: 0x144F8, offset: 0x51C35, size: 0x8, addend: 0x0, symName: __ZNKSt3__111__move_loopINS_17_ClassicAlgPolicyEEclB7v160006IP7PlayersS5_S5_EENS_4pairIT_T1_EES7_T0_S8_, symObjAddr: 0xB9A4, symBinAddr: 0x100014C7C, symSize: 0x90 }
  - { offsetInCU: 0x14569, offset: 0x51CA6, size: 0x8, addend: 0x0, symName: __ZNSt3__18_IterOpsINS_17_ClassicAlgPolicyEE11__iter_moveB7v160006IRP7PlayersEENS_9enable_ifIXsr12is_referenceIDTdeclsr3stdE7declvalIRT_EEEEE5valueEDTclsr3stdE4movedeclsr3stdE7declvalIS9_EEEEE4typeEOS8_, symObjAddr: 0xBAF8, symBinAddr: 0x100014D0C, symSize: 0x28 }
  - { offsetInCU: 0x14595, offset: 0x51CD2, size: 0x8, addend: 0x0, symName: __ZNSt3__18_IterOpsINS_17_ClassicAlgPolicyEE25__validate_iter_referenceB7v160006IRP7PlayersEEvv, symObjAddr: 0xBB20, symBinAddr: 0x100014D34, symSize: 0x4 }
  - { offsetInCU: 0xC9DF, offset: 0x5E779, size: 0x8, addend: 0x0, symName: __ZN7PlayersC2Ev, symObjAddr: 0x0, symBinAddr: 0x100014D38, symSize: 0xDC }
  - { offsetInCU: 0xCA0B, offset: 0x5E7A5, size: 0x8, addend: 0x0, symName: __ZN7PlayersC1Ev, symObjAddr: 0x134, symBinAddr: 0x100014E14, symSize: 0x2C }
  - { offsetInCU: 0xCA37, offset: 0x5E7D1, size: 0x8, addend: 0x0, symName: __ZN7PlayersC2ENSt3__112basic_stringIcNS0_11char_traitsIcEENS0_9allocatorIcEEEES6_S6_iiii, symObjAddr: 0x160, symBinAddr: 0x100014E40, symSize: 0x108 }
  - { offsetInCU: 0xCAC8, offset: 0x5E862, size: 0x8, addend: 0x0, symName: __ZN7PlayersC1ENSt3__112basic_stringIcNS0_11char_traitsIcEENS0_9allocatorIcEEEES6_S6_iiii, symObjAddr: 0x268, symBinAddr: 0x100014F48, symSize: 0x64 }
  - { offsetInCU: 0xCB59, offset: 0x5E8F3, size: 0x8, addend: 0x0, symName: __ZN7PlayersD2Ev, symObjAddr: 0x2CC, symBinAddr: 0x100014FAC, symSize: 0x44 }
  - { offsetInCU: 0xCB85, offset: 0x5E91F, size: 0x8, addend: 0x0, symName: __ZN7PlayersD1Ev, symObjAddr: 0x310, symBinAddr: 0x100014FF0, symSize: 0x2C }
  - { offsetInCU: 0xCBB1, offset: 0x5E94B, size: 0x8, addend: 0x0, symName: __ZN7Players7setNameENSt3__112basic_stringIcNS0_11char_traitsIcEENS0_9allocatorIcEEEE, symObjAddr: 0x33C, symBinAddr: 0x10001501C, symSize: 0x2C }
  - { offsetInCU: 0xCBE8, offset: 0x5E982, size: 0x8, addend: 0x0, symName: __ZN7Players11setTeamNameENSt3__112basic_stringIcNS0_11char_traitsIcEENS0_9allocatorIcEEEE, symObjAddr: 0x368, symBinAddr: 0x100015048, symSize: 0x30 }
  - { offsetInCU: 0xCC1F, offset: 0x5E9B9, size: 0x8, addend: 0x0, symName: __ZN7Players7setLaneENSt3__112basic_stringIcNS0_11char_traitsIcEENS0_9allocatorIcEEEE, symObjAddr: 0x398, symBinAddr: 0x100015078, symSize: 0x30 }
  - { offsetInCU: 0xCC56, offset: 0x5E9F0, size: 0x8, addend: 0x0, symName: __ZN7Players8setKillsEi, symObjAddr: 0x3C8, symBinAddr: 0x1000150A8, symSize: 0x20 }
  - { offsetInCU: 0xCC8C, offset: 0x5EA26, size: 0x8, addend: 0x0, symName: __ZN7Players9setDeathsEi, symObjAddr: 0x3E8, symBinAddr: 0x1000150C8, symSize: 0x20 }
  - { offsetInCU: 0xCCC2, offset: 0x5EA5C, size: 0x8, addend: 0x0, symName: __ZN7Players10setAssistsEi, symObjAddr: 0x408, symBinAddr: 0x1000150E8, symSize: 0x20 }
  - { offsetInCU: 0xCCF8, offset: 0x5EA92, size: 0x8, addend: 0x0, symName: __ZN7Players5setCSEi, symObjAddr: 0x428, symBinAddr: 0x100015108, symSize: 0x20 }
  - { offsetInCU: 0xCD2E, offset: 0x5EAC8, size: 0x8, addend: 0x0, symName: __ZN7Players9setPointsEiiii, symObjAddr: 0x448, symBinAddr: 0x100015128, symSize: 0x234 }
  - { offsetInCU: 0xCD8E, offset: 0x5EB28, size: 0x8, addend: 0x0, symName: __ZNK7Players7getNameEv, symObjAddr: 0x67C, symBinAddr: 0x10001535C, symSize: 0x38 }
  - { offsetInCU: 0xCDB6, offset: 0x5EB50, size: 0x8, addend: 0x0, symName: __ZNK7Players11getTeamNameEv, symObjAddr: 0x6B4, symBinAddr: 0x100015394, symSize: 0x3C }
  - { offsetInCU: 0xCDDE, offset: 0x5EB78, size: 0x8, addend: 0x0, symName: __ZNK7Players7getLaneEv, symObjAddr: 0x6F0, symBinAddr: 0x1000153D0, symSize: 0x3C }
  - { offsetInCU: 0xCE06, offset: 0x5EBA0, size: 0x8, addend: 0x0, symName: __ZNK7Players9getPointsEv, symObjAddr: 0x72C, symBinAddr: 0x10001540C, symSize: 0x18 }
  - { offsetInCU: 0xCE2E, offset: 0x5EBC8, size: 0x8, addend: 0x0, symName: __ZN7Players5printEv, symObjAddr: 0x744, symBinAddr: 0x100015424, symSize: 0x1C0 }
  - { offsetInCU: 0xCE56, offset: 0x5EBF0, size: 0x8, addend: 0x0, symName: __ZN7Players9printFileERNSt3__114basic_ofstreamIcNS0_11char_traitsIcEEEE, symObjAddr: 0xBE8, symBinAddr: 0x1000155E4, symSize: 0x80 }
...
